ARM GAS  /tmp/ccun4gHj.s 			page 1


   1              		.syntax unified
   2              		.cpu cortex-m0
   3              		.fpu softvfp
   4              		.eabi_attribute 20, 1	@ Tag_ABI_FP_denormal
   5              		.eabi_attribute 21, 1	@ Tag_ABI_FP_exceptions
   6              		.eabi_attribute 23, 3	@ Tag_ABI_FP_number_model
   7              		.eabi_attribute 24, 1	@ Tag_ABI_align8_needed
   8              		.eabi_attribute 25, 1	@ Tag_ABI_align8_preserved
   9              		.eabi_attribute 26, 1	@ Tag_ABI_enum_size
  10              		.eabi_attribute 30, 6	@ Tag_ABI_optimization_goals
  11              		.eabi_attribute 34, 0	@ Tag_CPU_unaligned_access
  12              		.eabi_attribute 18, 4	@ Tag_ABI_PCS_wchar_t
  13              		.file	"main.c"
  14              	@ GNU C11 (GNU Tools for ARM Embedded Processors) version 5.4.1 20160919 (release) [ARM/embedded-5-
  15              	@	compiled by GNU C version 4.7.4, GMP version 4.3.2, MPFR version 2.4.2, MPC version 0.8.1
  16              	@ GGC heuristics: --param ggc-min-expand=100 --param ggc-min-heapsize=131072
  17              	@ options passed:  -I . -I ./inc -imultilib armv6-m
  18              	@ -iprefix /srv/gcc-arm-none-eabi-5_4-2016q3/bin/../lib/gcc/arm-none-eabi/5.4.1/
  19              	@ -isysroot /srv/gcc-arm-none-eabi-5_4-2016q3/bin/../arm-none-eabi
  20              	@ -MD code/main.d -MF .dep/main.o.d -MP -MQ code/main.o -D__USES_INITFINI__
  21              	@ -D RUN_FROM_FLASH=1 code/main.c -mcpu=cortex-m0 -mthumb
  22              	@ -auxbase-strip code/main.o -gdwarf-2 -O0 -Wall -Wstrict-prototypes
  23              	@ -fomit-frame-pointer -fverbose-asm
  24              	@ options enabled:  -faggressive-loop-optimizations -fauto-inc-dec
  25              	@ -fchkp-check-incomplete-type -fchkp-check-read -fchkp-check-write
  26              	@ -fchkp-instrument-calls -fchkp-narrow-bounds -fchkp-optimize
  27              	@ -fchkp-store-bounds -fchkp-use-static-bounds
  28              	@ -fchkp-use-static-const-bounds -fchkp-use-wrappers -fcommon
  29              	@ -fdelete-null-pointer-checks -fdwarf2-cfi-asm -fearly-inlining
  30              	@ -feliminate-unused-debug-types -ffunction-cse -fgcse-lm -fgnu-runtime
  31              	@ -fgnu-unique -fident -finline-atomics -fira-hoist-pressure
  32              	@ -fira-share-save-slots -fira-share-spill-slots -fivopts
  33              	@ -fkeep-static-consts -fleading-underscore -flifetime-dse
  34              	@ -flto-odr-type-merging -fmath-errno -fmerge-debug-strings
  35              	@ -fomit-frame-pointer -fpeephole -fprefetch-loop-arrays
  36              	@ -freg-struct-return -fsched-critical-path-heuristic
  37              	@ -fsched-dep-count-heuristic -fsched-group-heuristic -fsched-interblock
  38              	@ -fsched-last-insn-heuristic -fsched-rank-heuristic -fsched-spec
  39              	@ -fsched-spec-insn-heuristic -fsched-stalled-insns-dep
  40              	@ -fsemantic-interposition -fshow-column -fsigned-zeros
  41              	@ -fsplit-ivs-in-unroller -fstdarg-opt -fstrict-volatile-bitfields
  42              	@ -fsync-libcalls -ftrapping-math -ftree-coalesce-vars -ftree-cselim
  43              	@ -ftree-forwprop -ftree-loop-if-convert -ftree-loop-im -ftree-loop-ivcanon
  44              	@ -ftree-loop-optimize -ftree-parallelize-loops= -ftree-phiprop
  45              	@ -ftree-reassoc -ftree-scev-cprop -funit-at-a-time -fverbose-asm
  46              	@ -fzero-initialized-in-bss -mlittle-endian -mpic-data-is-text-relative
  47              	@ -msched-prolog -mthumb -mvectorize-with-neon-quad
  48              	
  49              		.text
  50              	.Ltext0:
  51              		.cfi_sections	.debug_frame
  52              		.global	BUTTONS_REGS
  53              		.data
  54              		.align	2
  55              		.type	BUTTONS_REGS, %object
  56              		.size	BUTTONS_REGS, 4
  57              	BUTTONS_REGS:
ARM GAS  /tmp/ccun4gHj.s 			page 2


  58 0000 00000040 		.word	1073741824
  59              		.global	SENSORS_REGS
  60              		.align	2
  61              		.type	SENSORS_REGS, %object
  62              		.size	SENSORS_REGS, 4
  63              	SENSORS_REGS:
  64 0004 00000050 		.word	1342177280
  65              		.global	LED_REGS
  66              		.align	2
  67              		.type	LED_REGS, %object
  68              		.size	LED_REGS, 4
  69              	LED_REGS:
  70 0008 00000060 		.word	1610612736
  71              		.text
  72              		.align	2
  73              		.global	write_led
  74              		.code	16
  75              		.thumb_func
  76              		.type	write_led, %function
  77              	write_led:
  78              	.LFB0:
  79              		.file 1 "code/main.c"
   1:code/main.c   **** #define __MAIN_C__
   2:code/main.c   **** //?
   3:code/main.c   **** #include <stdint.h>
   4:code/main.c   **** #include <stdbool.h>
   5:code/main.c   **** 
   6:code/main.c   **** // Define the raw base address values for the i/o devices
   7:code/main.c   **** 
   8:code/main.c   **** #define AHB_BUTTONS_BASE                          0x40000000
   9:code/main.c   **** #define AHB_SENSORS_BASE                          0x50000000
  10:code/main.c   **** #define AHB_LED_BASE                              0x60000000
  11:code/main.c   **** 
  12:code/main.c   **** // Define pointers with correct type for access to 32-bit i/o devices
  13:code/main.c   **** //
  14:code/main.c   **** // The locations in the devices can then be accessed as:
  15:code/main.c   **** //    IPORT_REGS[0]
  16:code/main.c   **** //    OPORT_REGS[0]
  17:code/main.c   **** //
  18:code/main.c   **** volatile uint32_t* BUTTONS_REGS = (volatile uint32_t*) AHB_BUTTONS_BASE;
  19:code/main.c   **** volatile uint32_t* SENSORS_REGS = (volatile uint32_t*) AHB_SENSORS_BASE;
  20:code/main.c   **** volatile uint32_t* LED_REGS = (volatile uint32_t*) AHB_LED_BASE;
  21:code/main.c   **** 
  22:code/main.c   **** #include <stdint.h>
  23:code/main.c   **** 
  24:code/main.c   **** //////////////////////////////////////////////////////////////////
  25:code/main.c   **** // Functions provided to access i/o devices
  26:code/main.c   **** //////////////////////////////////////////////////////////////////
  27:code/main.c   **** 
  28:code/main.c   **** void write_led(uint32_t value) {
  80              		.loc 1 28 0
  81              		.cfi_startproc
  82              		@ args = 0, pretend = 0, frame = 8
  83              		@ frame_needed = 0, uses_anonymous_args = 0
  84              		@ link register save eliminated.
  85 0000 82B0     		sub	sp, sp, #8	@,,
  86              	.LCFI0:
ARM GAS  /tmp/ccun4gHj.s 			page 3


  87              		.cfi_def_cfa_offset 8
  88 0002 0190     		str	r0, [sp, #4]	@ value, value
  29:code/main.c   **** 
  30:code/main.c   ****   LED_REGS[0] = value;
  89              		.loc 1 30 0
  90 0004 034B     		ldr	r3, .L2	@ tmp111,
  91 0006 1B68     		ldr	r3, [r3]	@ D.4593, LED_REGS
  92 0008 019A     		ldr	r2, [sp, #4]	@ tmp112, value
  93 000a 1A60     		str	r2, [r3]	@ tmp112, *_2
  31:code/main.c   **** 
  32:code/main.c   **** }
  94              		.loc 1 32 0
  95 000c C046     		nop
  96 000e 02B0     		add	sp, sp, #8	@,,
  97              		@ sp needed	@
  98 0010 7047     		bx	lr
  99              	.L3:
 100 0012 C046     		.align	2
 101              	.L2:
 102 0014 00000000 		.word	LED_REGS
 103              		.cfi_endproc
 104              	.LFE0:
 105              		.size	write_led, .-write_led
 106              		.align	2
 107              		.global	read_nFork
 108              		.code	16
 109              		.thumb_func
 110              		.type	read_nFork, %function
 111              	read_nFork:
 112              	.LFB1:
  33:code/main.c   **** 
  34:code/main.c   **** uint32_t read_nFork(void) {
 113              		.loc 1 34 0
 114              		.cfi_startproc
 115              		@ args = 0, pretend = 0, frame = 0
 116              		@ frame_needed = 0, uses_anonymous_args = 0
 117              		@ link register save eliminated.
  35:code/main.c   ****   
  36:code/main.c   ****   return SENSORS_REGS[0];
 118              		.loc 1 36 0
 119 0018 024B     		ldr	r3, .L6	@ tmp113,
 120 001a 1B68     		ldr	r3, [r3]	@ D.4594, SENSORS_REGS
 121 001c 1B68     		ldr	r3, [r3]	@ D.4595, *_2
  37:code/main.c   **** } 
 122              		.loc 1 37 0
 123 001e 1800     		movs	r0, r3	@, <retval>
 124              		@ sp needed	@
 125 0020 7047     		bx	lr
 126              	.L7:
 127 0022 C046     		.align	2
 128              	.L6:
 129 0024 00000000 		.word	SENSORS_REGS
 130              		.cfi_endproc
 131              	.LFE1:
 132              		.size	read_nFork, .-read_nFork
 133              		.align	2
 134              		.global	read_nCrank
ARM GAS  /tmp/ccun4gHj.s 			page 4


 135              		.code	16
 136              		.thumb_func
 137              		.type	read_nCrank, %function
 138              	read_nCrank:
 139              	.LFB2:
  38:code/main.c   **** 
  39:code/main.c   **** uint32_t read_nCrank(void) {
 140              		.loc 1 39 0
 141              		.cfi_startproc
 142              		@ args = 0, pretend = 0, frame = 0
 143              		@ frame_needed = 0, uses_anonymous_args = 0
 144              		@ link register save eliminated.
  40:code/main.c   ****   
  41:code/main.c   ****   return SENSORS_REGS[1];
 145              		.loc 1 41 0
 146 0028 024B     		ldr	r3, .L10	@ tmp114,
 147 002a 1B68     		ldr	r3, [r3]	@ D.4596, SENSORS_REGS
 148 002c 0433     		adds	r3, r3, #4	@ D.4596,
 149 002e 1B68     		ldr	r3, [r3]	@ D.4597, *_3
  42:code/main.c   **** } 
 150              		.loc 1 42 0
 151 0030 1800     		movs	r0, r3	@, <retval>
 152              		@ sp needed	@
 153 0032 7047     		bx	lr
 154              	.L11:
 155              		.align	2
 156              	.L10:
 157 0034 00000000 		.word	SENSORS_REGS
 158              		.cfi_endproc
 159              	.LFE2:
 160              		.size	read_nCrank, .-read_nCrank
 161              		.align	2
 162              		.global	read_fork_cnt
 163              		.code	16
 164              		.thumb_func
 165              		.type	read_fork_cnt, %function
 166              	read_fork_cnt:
 167              	.LFB3:
  43:code/main.c   **** 
  44:code/main.c   **** uint32_t read_fork_cnt(void) {
 168              		.loc 1 44 0
 169              		.cfi_startproc
 170              		@ args = 0, pretend = 0, frame = 0
 171              		@ frame_needed = 0, uses_anonymous_args = 0
 172              		@ link register save eliminated.
  45:code/main.c   ****   
  46:code/main.c   ****   return SENSORS_REGS[2];
 173              		.loc 1 46 0
 174 0038 024B     		ldr	r3, .L14	@ tmp114,
 175 003a 1B68     		ldr	r3, [r3]	@ D.4598, SENSORS_REGS
 176 003c 0833     		adds	r3, r3, #8	@ D.4598,
 177 003e 1B68     		ldr	r3, [r3]	@ D.4599, *_3
  47:code/main.c   **** } 
 178              		.loc 1 47 0
 179 0040 1800     		movs	r0, r3	@, <retval>
 180              		@ sp needed	@
 181 0042 7047     		bx	lr
ARM GAS  /tmp/ccun4gHj.s 			page 5


 182              	.L15:
 183              		.align	2
 184              	.L14:
 185 0044 00000000 		.word	SENSORS_REGS
 186              		.cfi_endproc
 187              	.LFE3:
 188              		.size	read_fork_cnt, .-read_fork_cnt
 189              		.align	2
 190              		.global	read_pedal_cnt
 191              		.code	16
 192              		.thumb_func
 193              		.type	read_pedal_cnt, %function
 194              	read_pedal_cnt:
 195              	.LFB4:
  48:code/main.c   **** 
  49:code/main.c   **** uint32_t read_pedal_cnt(void) {
 196              		.loc 1 49 0
 197              		.cfi_startproc
 198              		@ args = 0, pretend = 0, frame = 0
 199              		@ frame_needed = 0, uses_anonymous_args = 0
 200              		@ link register save eliminated.
  50:code/main.c   ****   
  51:code/main.c   ****   return SENSORS_REGS[3];
 201              		.loc 1 51 0
 202 0048 024B     		ldr	r3, .L18	@ tmp114,
 203 004a 1B68     		ldr	r3, [r3]	@ D.4600, SENSORS_REGS
 204 004c 0C33     		adds	r3, r3, #12	@ D.4600,
 205 004e 1B68     		ldr	r3, [r3]	@ D.4601, *_3
  52:code/main.c   **** } 
 206              		.loc 1 52 0
 207 0050 1800     		movs	r0, r3	@, <retval>
 208              		@ sp needed	@
 209 0052 7047     		bx	lr
 210              	.L19:
 211              		.align	2
 212              	.L18:
 213 0054 00000000 		.word	SENSORS_REGS
 214              		.cfi_endproc
 215              	.LFE4:
 216              		.size	read_pedal_cnt, .-read_pedal_cnt
 217              		.align	2
 218              		.global	read_nMode
 219              		.code	16
 220              		.thumb_func
 221              		.type	read_nMode, %function
 222              	read_nMode:
 223              	.LFB5:
  53:code/main.c   **** 
  54:code/main.c   **** //uint32_t read_timer(void) {
  55:code/main.c   ****   
  56:code/main.c   **** //  return SENSORS_REGS[4];
  57:code/main.c   **** //}
  58:code/main.c   **** 
  59:code/main.c   **** //void reset_timer(void){
  60:code/main.c   **** //  SENSORS_REGS[4] = 0x00000000;
  61:code/main.c   **** //} 
  62:code/main.c   **** 
ARM GAS  /tmp/ccun4gHj.s 			page 6


  63:code/main.c   **** //uint32_t read_status(void) {
  64:code/main.c   ****   
  65:code/main.c   **** //  return SENSORS_REGS[5];
  66:code/main.c   **** //}
  67:code/main.c   **** 
  68:code/main.c   **** uint32_t read_nMode(void) {
 224              		.loc 1 68 0
 225              		.cfi_startproc
 226              		@ args = 0, pretend = 0, frame = 0
 227              		@ frame_needed = 0, uses_anonymous_args = 0
 228              		@ link register save eliminated.
  69:code/main.c   ****   
  70:code/main.c   ****   return BUTTONS_REGS[0];
 229              		.loc 1 70 0
 230 0058 024B     		ldr	r3, .L22	@ tmp113,
 231 005a 1B68     		ldr	r3, [r3]	@ D.4602, BUTTONS_REGS
 232 005c 1B68     		ldr	r3, [r3]	@ D.4603, *_2
  71:code/main.c   **** }
 233              		.loc 1 71 0
 234 005e 1800     		movs	r0, r3	@, <retval>
 235              		@ sp needed	@
 236 0060 7047     		bx	lr
 237              	.L23:
 238 0062 C046     		.align	2
 239              	.L22:
 240 0064 00000000 		.word	BUTTONS_REGS
 241              		.cfi_endproc
 242              	.LFE5:
 243              		.size	read_nMode, .-read_nMode
 244              		.align	2
 245              		.global	read_nTrip
 246              		.code	16
 247              		.thumb_func
 248              		.type	read_nTrip, %function
 249              	read_nTrip:
 250              	.LFB6:
  72:code/main.c   **** 
  73:code/main.c   **** uint32_t read_nTrip(void) {
 251              		.loc 1 73 0
 252              		.cfi_startproc
 253              		@ args = 0, pretend = 0, frame = 0
 254              		@ frame_needed = 0, uses_anonymous_args = 0
 255              		@ link register save eliminated.
  74:code/main.c   ****   
  75:code/main.c   ****   return BUTTONS_REGS[1];
 256              		.loc 1 75 0
 257 0068 024B     		ldr	r3, .L26	@ tmp114,
 258 006a 1B68     		ldr	r3, [r3]	@ D.4604, BUTTONS_REGS
 259 006c 0433     		adds	r3, r3, #4	@ D.4604,
 260 006e 1B68     		ldr	r3, [r3]	@ D.4605, *_3
  76:code/main.c   **** }
 261              		.loc 1 76 0
 262 0070 1800     		movs	r0, r3	@, <retval>
 263              		@ sp needed	@
 264 0072 7047     		bx	lr
 265              	.L27:
 266              		.align	2
ARM GAS  /tmp/ccun4gHj.s 			page 7


 267              	.L26:
 268 0074 00000000 		.word	BUTTONS_REGS
 269              		.cfi_endproc
 270              	.LFE6:
 271              		.size	read_nTrip, .-read_nTrip
 272              		.align	2
 273              		.global	read_together_button
 274              		.code	16
 275              		.thumb_func
 276              		.type	read_together_button, %function
 277              	read_together_button:
 278              	.LFB7:
  77:code/main.c   **** 
  78:code/main.c   **** uint32_t read_together_button(void) {
 279              		.loc 1 78 0
 280              		.cfi_startproc
 281              		@ args = 0, pretend = 0, frame = 0
 282              		@ frame_needed = 0, uses_anonymous_args = 0
 283              		@ link register save eliminated.
  79:code/main.c   ****   
  80:code/main.c   ****   return BUTTONS_REGS[2];
 284              		.loc 1 80 0
 285 0078 024B     		ldr	r3, .L30	@ tmp114,
 286 007a 1B68     		ldr	r3, [r3]	@ D.4606, BUTTONS_REGS
 287 007c 0833     		adds	r3, r3, #8	@ D.4606,
 288 007e 1B68     		ldr	r3, [r3]	@ D.4607, *_3
  81:code/main.c   **** }
 289              		.loc 1 81 0
 290 0080 1800     		movs	r0, r3	@, <retval>
 291              		@ sp needed	@
 292 0082 7047     		bx	lr
 293              	.L31:
 294              		.align	2
 295              	.L30:
 296 0084 00000000 		.word	BUTTONS_REGS
 297              		.cfi_endproc
 298              	.LFE7:
 299              		.size	read_together_button, .-read_together_button
 300              		.align	2
 301              		.global	connect_digits
 302              		.code	16
 303              		.thumb_func
 304              		.type	connect_digits, %function
 305              	connect_digits:
 306              	.LFB8:
  82:code/main.c   **** 
  83:code/main.c   **** //////////////////////////////////////////////////////////////////
  84:code/main.c   **** // Other Functions
  85:code/main.c   **** //////////////////////////////////////////////////////////////////
  86:code/main.c   **** 
  87:code/main.c   **** 
  88:code/main.c   **** uint32_t connect_digits(uint8_t DP, uint8_t digit3, uint8_t digit2, uint8_t digit1, uint8_t digit0)
 307              		.loc 1 88 0
 308              		.cfi_startproc
 309              		@ args = 4, pretend = 0, frame = 32
 310              		@ frame_needed = 0, uses_anonymous_args = 0
 311 0088 30B5     		push	{r4, r5, lr}	@
ARM GAS  /tmp/ccun4gHj.s 			page 8


 312              	.LCFI1:
 313              		.cfi_def_cfa_offset 12
 314              		.cfi_offset 4, -12
 315              		.cfi_offset 5, -8
 316              		.cfi_offset 14, -4
 317 008a 89B0     		sub	sp, sp, #36	@,,
 318              	.LCFI2:
 319              		.cfi_def_cfa_offset 48
 320 008c 0500     		movs	r5, r0	@ tmp123, DP
 321 008e 0C00     		movs	r4, r1	@ tmp126, digit3
 322 0090 1000     		movs	r0, r2	@ tmp129, digit2
 323 0092 1900     		movs	r1, r3	@ tmp132, digit1
 324 0094 6B46     		mov	r3, sp	@ tmp149,
 325 0096 0733     		adds	r3, r3, #7	@ tmp124,
 326 0098 2A1C     		adds	r2, r5, #0	@ tmp125, tmp123
 327 009a 1A70     		strb	r2, [r3]	@ tmp125, DP
 328 009c 6B46     		mov	r3, sp	@ tmp150,
 329 009e 0633     		adds	r3, r3, #6	@ tmp127,
 330 00a0 221C     		adds	r2, r4, #0	@ tmp128, tmp126
 331 00a2 1A70     		strb	r2, [r3]	@ tmp128, digit3
 332 00a4 6B46     		mov	r3, sp	@ tmp151,
 333 00a6 0533     		adds	r3, r3, #5	@ tmp130,
 334 00a8 021C     		adds	r2, r0, #0	@ tmp131, tmp129
 335 00aa 1A70     		strb	r2, [r3]	@ tmp131, digit2
 336 00ac 01AB     		add	r3, sp, #4	@ tmp133,,
 337 00ae 0A1C     		adds	r2, r1, #0	@ tmp134, tmp132
 338 00b0 1A70     		strb	r2, [r3]	@ tmp134, digit1
  89:code/main.c   ****   uint32_t led_display = 0x00000000;
 339              		.loc 1 89 0
 340 00b2 0023     		movs	r3, #0	@ tmp135,
 341 00b4 0793     		str	r3, [sp, #28]	@ tmp135, led_display
  90:code/main.c   **** 
  91:code/main.c   ****   uint32_t dp = DP << 15;
 342              		.loc 1 91 0
 343 00b6 6B46     		mov	r3, sp	@ tmp152,
 344 00b8 0733     		adds	r3, r3, #7	@ tmp136,
 345 00ba 1B78     		ldrb	r3, [r3]	@ D.4608, DP
 346 00bc DB03     		lsls	r3, r3, #15	@ D.4608, D.4608,
 347 00be 0693     		str	r3, [sp, #24]	@ D.4608, dp
  92:code/main.c   ****   uint32_t d3 = digit3 << 12;
 348              		.loc 1 92 0
 349 00c0 6B46     		mov	r3, sp	@ tmp153,
 350 00c2 0633     		adds	r3, r3, #6	@ tmp137,
 351 00c4 1B78     		ldrb	r3, [r3]	@ D.4608, digit3
 352 00c6 1B03     		lsls	r3, r3, #12	@ D.4608, D.4608,
 353 00c8 0593     		str	r3, [sp, #20]	@ D.4608, d3
  93:code/main.c   ****   uint32_t d2 = digit2 << 8;
 354              		.loc 1 93 0
 355 00ca 6B46     		mov	r3, sp	@ tmp154,
 356 00cc 0533     		adds	r3, r3, #5	@ tmp138,
 357 00ce 1B78     		ldrb	r3, [r3]	@ D.4608, digit2
 358 00d0 1B02     		lsls	r3, r3, #8	@ D.4608, D.4608,
 359 00d2 0493     		str	r3, [sp, #16]	@ D.4608, d2
  94:code/main.c   ****   uint32_t d1 = digit1 << 4;
 360              		.loc 1 94 0
 361 00d4 01AB     		add	r3, sp, #4	@ tmp139,,
 362 00d6 1B78     		ldrb	r3, [r3]	@ D.4608, digit1
ARM GAS  /tmp/ccun4gHj.s 			page 9


 363 00d8 1B01     		lsls	r3, r3, #4	@ D.4608, D.4608,
 364 00da 0393     		str	r3, [sp, #12]	@ D.4608, d1
  95:code/main.c   ****   uint32_t d0 = digit0;
 365              		.loc 1 95 0
 366 00dc 0CAB     		add	r3, sp, #48	@ tmp140,,
 367 00de 1B78     		ldrb	r3, [r3]	@ tmp141, digit0
 368 00e0 0293     		str	r3, [sp, #8]	@ tmp141, d0
  96:code/main.c   ****   
  97:code/main.c   ****   led_display = dp + d3 + d2 + d1 + d0;
 369              		.loc 1 97 0
 370 00e2 069A     		ldr	r2, [sp, #24]	@ tmp142, dp
 371 00e4 059B     		ldr	r3, [sp, #20]	@ tmp143, d3
 372 00e6 D218     		adds	r2, r2, r3	@ D.4609, tmp142, tmp143
 373 00e8 049B     		ldr	r3, [sp, #16]	@ tmp144, d2
 374 00ea D218     		adds	r2, r2, r3	@ D.4609, D.4609, tmp144
 375 00ec 039B     		ldr	r3, [sp, #12]	@ tmp145, d1
 376 00ee D218     		adds	r2, r2, r3	@ D.4609, D.4609, tmp145
 377 00f0 029B     		ldr	r3, [sp, #8]	@ tmp147, d0
 378 00f2 D318     		adds	r3, r2, r3	@ tmp146, D.4609, tmp147
 379 00f4 0793     		str	r3, [sp, #28]	@ tmp146, led_display
  98:code/main.c   ****   
  99:code/main.c   ****   return led_display;
 380              		.loc 1 99 0
 381 00f6 079B     		ldr	r3, [sp, #28]	@ D.4610, led_display
 100:code/main.c   **** }
 382              		.loc 1 100 0
 383 00f8 1800     		movs	r0, r3	@, <retval>
 384 00fa 09B0     		add	sp, sp, #36	@,,
 385              		@ sp needed	@
 386 00fc 30BD     		pop	{r4, r5, pc}
 387              		.cfi_endproc
 388              	.LFE8:
 389              		.size	connect_digits, .-connect_digits
 390              		.global	__aeabi_uidivmod
 391              		.global	__aeabi_uidiv
 392 00fe C046     		.align	2
 393              		.global	main
 394              		.code	16
 395              		.thumb_func
 396              		.type	main, %function
 397              	main:
 398              	.LFB9:
 101:code/main.c   **** 
 102:code/main.c   **** //uint32_t low_pass_filter(uint32_t last_speed, uint32_t present_speed, uint8_t factor) {
 103:code/main.c   ****   
 104:code/main.c   ****   //return last_speed * (1 - factor) + present_speed * factor;
 105:code/main.c   ****   
 106:code/main.c   **** //}
 107:code/main.c   **** 
 108:code/main.c   **** //////////////////////////////////////////////////////////////////
 109:code/main.c   **** // Main Function
 110:code/main.c   **** //////////////////////////////////////////////////////////////////
 111:code/main.c   **** 
 112:code/main.c   **** int main(void) {
 399              		.loc 1 112 0
 400              		.cfi_startproc
 401              		@ args = 0, pretend = 0, frame = 72
ARM GAS  /tmp/ccun4gHj.s 			page 10


 402              		@ frame_needed = 0, uses_anonymous_args = 0
 403 0100 30B5     		push	{r4, r5, lr}	@
 404              	.LCFI3:
 405              		.cfi_def_cfa_offset 12
 406              		.cfi_offset 4, -12
 407              		.cfi_offset 5, -8
 408              		.cfi_offset 14, -4
 409 0102 95B0     		sub	sp, sp, #84	@,,
 410              	.LCFI4:
 411              		.cfi_def_cfa_offset 96
 113:code/main.c   **** 
 114:code/main.c   ****   uint8_t Mode = 0x00;
 412              		.loc 1 114 0
 413 0104 4F23     		movs	r3, #79	@ tmp299,
 414 0106 6B44     		add	r3, r3, sp	@ tmp299,
 415 0108 0022     		movs	r2, #0	@ tmp300,
 416 010a 1A70     		strb	r2, [r3]	@ tmp301, Mode
 115:code/main.c   **** //  Odometer 
 116:code/main.c   ****   uint32_t fork_counter = 0x00000000;
 417              		.loc 1 116 0
 418 010c 0023     		movs	r3, #0	@ tmp302,
 419 010e 1293     		str	r3, [sp, #72]	@ tmp302, fork_counter
 117:code/main.c   ****   uint32_t odometer = 0x00000000;
 420              		.loc 1 117 0
 421 0110 0023     		movs	r3, #0	@ tmp303,
 422 0112 1193     		str	r3, [sp, #68]	@ tmp303, odometer
 118:code/main.c   **** 
 119:code/main.c   **** //  Trip Timer
 120:code/main.c   ****   uint32_t time = 0x00000000;
 423              		.loc 1 120 0
 424 0114 0023     		movs	r3, #0	@ tmp304,
 425 0116 1093     		str	r3, [sp, #64]	@ tmp304, time
 121:code/main.c   ****   uint32_t accumulate_time = 0x00000000;
 426              		.loc 1 121 0
 427 0118 0023     		movs	r3, #0	@ tmp305,
 428 011a 0F93     		str	r3, [sp, #60]	@ tmp305, accumulate_time
 122:code/main.c   ****   uint32_t minute = 0x00000000;
 429              		.loc 1 122 0
 430 011c 0023     		movs	r3, #0	@ tmp306,
 431 011e 0493     		str	r3, [sp, #16]	@ tmp306, minute
 123:code/main.c   **** 
 124:code/main.c   **** //  Average Speed
 125:code/main.c   ****   uint32_t av_ssni_419 = 0x00000000;
 432              		.loc 1 125 0
 433 0120 0023     		movs	r3, #0	@ tmp307,
 434 0122 0E93     		str	r3, [sp, #56]	@ tmp307, av_ssni_419
 126:code/main.c   **** 
 127:code/main.c   **** //  Maximum Speed
 128:code/main.c   ****   uint32_t max_speed = 0x00000000;
 435              		.loc 1 128 0
 436 0124 0023     		movs	r3, #0	@ tmp308,
 437 0126 0D93     		str	r3, [sp, #52]	@ tmp308, max_speed
 129:code/main.c   **** 
 130:code/main.c   **** //  Speedometer
 131:code/main.c   ****   uint32_t speedometer = 0x00000000;
 438              		.loc 1 131 0
 439 0128 0023     		movs	r3, #0	@ tmp309,
ARM GAS  /tmp/ccun4gHj.s 			page 11


 440 012a 0C93     		str	r3, [sp, #48]	@ tmp309, speedometer
 132:code/main.c   **** //  uint32_t last_speed = 0x00000000;
 133:code/main.c   **** //  uint32_t present_speed = 0x00000000;
 134:code/main.c   ****   uint32_t fork_time = 0x00000000;
 441              		.loc 1 134 0
 442 012c 0023     		movs	r3, #0	@ tmp310,
 443 012e 0B93     		str	r3, [sp, #44]	@ tmp310, fork_time
 135:code/main.c   ****   //uint8_t  lpf_factor=0.5;
 136:code/main.c   **** 
 137:code/main.c   **** //  Cadence
 138:code/main.c   ****   uint32_t cadence_meter = 0x00000000;
 444              		.loc 1 138 0
 445 0130 0023     		movs	r3, #0	@ tmp311,
 446 0132 0A93     		str	r3, [sp, #40]	@ tmp311, cadence_meter
 139:code/main.c   **** 
 140:code/main.c   **** //  Calorie
 141:code/main.c   ****   uint32_t calorie = 0x00000000;
 447              		.loc 1 141 0
 448 0134 0023     		movs	r3, #0	@ tmp312,
 449 0136 0993     		str	r3, [sp, #36]	@ tmp312, calorie
 142:code/main.c   **** 
 143:code/main.c   **** //  LED display
 144:code/main.c   ****   uint8_t digits[4];
 145:code/main.c   ****   digits[0] = 0;
 450              		.loc 1 145 0
 451 0138 03AB     		add	r3, sp, #12	@ tmp313,,
 452 013a 0022     		movs	r2, #0	@ tmp314,
 453 013c 1A70     		strb	r2, [r3]	@ tmp315, digits
 146:code/main.c   ****   digits[1] = 0;
 454              		.loc 1 146 0
 455 013e 03AB     		add	r3, sp, #12	@ tmp316,,
 456 0140 0022     		movs	r2, #0	@ tmp317,
 457 0142 5A70     		strb	r2, [r3, #1]	@ tmp318, digits
 147:code/main.c   ****   digits[2] = 0;
 458              		.loc 1 147 0
 459 0144 03AB     		add	r3, sp, #12	@ tmp319,,
 460 0146 0022     		movs	r2, #0	@ tmp320,
 461 0148 9A70     		strb	r2, [r3, #2]	@ tmp321, digits
 148:code/main.c   ****   digits[3] = 0;
 462              		.loc 1 148 0
 463 014a 03AB     		add	r3, sp, #12	@ tmp322,,
 464 014c 0022     		movs	r2, #0	@ tmp323,
 465 014e DA70     		strb	r2, [r3, #3]	@ tmp324, digits
 149:code/main.c   ****   uint8_t DP = 0x07;
 466              		.loc 1 149 0
 467 0150 2323     		movs	r3, #35	@ tmp325,
 468 0152 6B44     		add	r3, r3, sp	@ tmp325,
 469 0154 0722     		movs	r2, #7	@ tmp326,
 470 0156 1A70     		strb	r2, [r3]	@ tmp327, DP
 150:code/main.c   ****   uint8_t digit_index = 0x02;
 471              		.loc 1 150 0
 472 0158 2223     		movs	r3, #34	@ tmp328,
 473 015a 6B44     		add	r3, r3, sp	@ tmp328,
 474 015c 0222     		movs	r2, #2	@ tmp329,
 475 015e 1A70     		strb	r2, [r3]	@ tmp330, digit_index
 151:code/main.c   ****   uint16_t DiscreteDisplay = 0x0000;
 476              		.loc 1 151 0
ARM GAS  /tmp/ccun4gHj.s 			page 12


 477 0160 08AB     		add	r3, sp, #32	@ tmp331,,
 478 0162 0022     		movs	r2, #0	@ tmp332,
 479 0164 1A80     		strh	r2, [r3]	@ tmp333, DiscreteDisplay
 152:code/main.c   ****   bool display = false;
 480              		.loc 1 152 0
 481 0166 1F23     		movs	r3, #31	@ tmp334,
 482 0168 6B44     		add	r3, r3, sp	@ tmp334,
 483 016a 0022     		movs	r2, #0	@ tmp335,
 484 016c 1A70     		strb	r2, [r3]	@ tmp336, display
 153:code/main.c   **** 
 154:code/main.c   **** //  Constant
 155:code/main.c   ****   //uint32_t kinematic = 0.6142;
 156:code/main.c   **** 
 157:code/main.c   **** //  Use-defined Parameters
 158:code/main.c   ****   uint32_t weight = 0x00000046;// default weight is 70kg 
 485              		.loc 1 158 0
 486 016e 4623     		movs	r3, #70	@ tmp337,
 487 0170 0693     		str	r3, [sp, #24]	@ tmp337, weight
 159:code/main.c   ****   uint32_t wheel_size = 0x000000D6; // default wheel size is 214cm
 488              		.loc 1 159 0
 489 0172 D623     		movs	r3, #214	@ tmp338,
 490 0174 0593     		str	r3, [sp, #20]	@ tmp338, wheel_size
 160:code/main.c   **** 
 161:code/main.c   **** //  Initialize
 162:code/main.c   ****   write_led(connect_digits(DP, digits[3], digits[2], digits[1], digits[0]));
 491              		.loc 1 162 0
 492 0176 03AB     		add	r3, sp, #12	@ tmp339,,
 493 0178 D978     		ldrb	r1, [r3, #3]	@ D.4611,
 494 017a 03AB     		add	r3, sp, #12	@ tmp340,,
 495 017c 9C78     		ldrb	r4, [r3, #2]	@ D.4611,
 496 017e 03AB     		add	r3, sp, #12	@ tmp341,,
 497 0180 5D78     		ldrb	r5, [r3, #1]	@ D.4611,
 498 0182 03AB     		add	r3, sp, #12	@ tmp342,,
 499 0184 1B78     		ldrb	r3, [r3]	@ D.4611, digits
 500 0186 2322     		movs	r2, #35	@ tmp343,
 501 0188 6A44     		add	r2, r2, sp	@ tmp343,
 502 018a 1078     		ldrb	r0, [r2]	@ tmp344, DP
 503 018c 0093     		str	r3, [sp]	@ D.4611,
 504 018e 2B00     		movs	r3, r5	@, D.4611
 505 0190 2200     		movs	r2, r4	@, D.4611
 506 0192 FFF7FEFF 		bl	connect_digits	@
 507 0196 0300     		movs	r3, r0	@ D.4612,
 508 0198 1800     		movs	r0, r3	@, D.4612
 509 019a FFF7FEFF 		bl	write_led	@
 510              	.L77:
 163:code/main.c   **** // reset_timer();
 164:code/main.c   **** 
 165:code/main.c   **** //  Main program -- permernant loop  
 166:code/main.c   ****   while(1){
 167:code/main.c   **** 
 168:code/main.c   ****     if (read_together_button()){
 511              		.loc 1 168 0
 512 019e FFF7FEFF 		bl	read_together_button	@
 513 01a2 031E     		subs	r3, r0, #0	@ D.4612,,
 514 01a4 26D0     		beq	.L35	@,
 169:code/main.c   ****       digit_index = 0x02;
 515              		.loc 1 169 0
ARM GAS  /tmp/ccun4gHj.s 			page 13


 516 01a6 2223     		movs	r3, #34	@ tmp345,
 517 01a8 6B44     		add	r3, r3, sp	@ tmp345,
 518 01aa 0222     		movs	r2, #2	@ tmp346,
 519 01ac 1A70     		strb	r2, [r3]	@ tmp347, digit_index
 170:code/main.c   ****       digits[3] = 0x07;
 520              		.loc 1 170 0
 521 01ae 03AB     		add	r3, sp, #12	@ tmp348,,
 522 01b0 0722     		movs	r2, #7	@ tmp349,
 523 01b2 DA70     		strb	r2, [r3, #3]	@ tmp350, digits
 171:code/main.c   ****       if (Mode != 0x06) {
 524              		.loc 1 171 0
 525 01b4 4F23     		movs	r3, #79	@ tmp351,
 526 01b6 6B44     		add	r3, r3, sp	@ tmp351,
 527 01b8 1B78     		ldrb	r3, [r3]	@ tmp352, Mode
 528 01ba 062B     		cmp	r3, #6	@ tmp352,
 529 01bc 0DD0     		beq	.L36	@,
 172:code/main.c   ****         digits[2] = 0x02;
 530              		.loc 1 172 0
 531 01be 03AB     		add	r3, sp, #12	@ tmp353,,
 532 01c0 0222     		movs	r2, #2	@ tmp354,
 533 01c2 9A70     		strb	r2, [r3, #2]	@ tmp355, digits
 173:code/main.c   ****         digits[1] = 0x01;
 534              		.loc 1 173 0
 535 01c4 03AB     		add	r3, sp, #12	@ tmp356,,
 536 01c6 0122     		movs	r2, #1	@ tmp357,
 537 01c8 5A70     		strb	r2, [r3, #1]	@ tmp358, digits
 174:code/main.c   ****         digits[0] = 0x04;
 538              		.loc 1 174 0
 539 01ca 03AB     		add	r3, sp, #12	@ tmp359,,
 540 01cc 0422     		movs	r2, #4	@ tmp360,
 541 01ce 1A70     		strb	r2, [r3]	@ tmp361, digits
 175:code/main.c   ****         Mode = 0x07;  // go to set wheel size
 542              		.loc 1 175 0
 543 01d0 4F23     		movs	r3, #79	@ tmp362,
 544 01d2 6B44     		add	r3, r3, sp	@ tmp362,
 545 01d4 0722     		movs	r2, #7	@ tmp363,
 546 01d6 1A70     		strb	r2, [r3]	@ tmp364, Mode
 547 01d8 0CE0     		b	.L35	@
 548              	.L36:
 176:code/main.c   ****       }
 177:code/main.c   ****       else {
 178:code/main.c   ****         digits[2] = 0x00;
 549              		.loc 1 178 0
 550 01da 03AB     		add	r3, sp, #12	@ tmp365,,
 551 01dc 0022     		movs	r2, #0	@ tmp366,
 552 01de 9A70     		strb	r2, [r3, #2]	@ tmp367, digits
 179:code/main.c   ****         digits[1] = 0x04;
 553              		.loc 1 179 0
 554 01e0 03AB     		add	r3, sp, #12	@ tmp368,,
 555 01e2 0422     		movs	r2, #4	@ tmp369,
 556 01e4 5A70     		strb	r2, [r3, #1]	@ tmp370, digits
 180:code/main.c   ****         digits[0] = 0x00;
 557              		.loc 1 180 0
 558 01e6 03AB     		add	r3, sp, #12	@ tmp371,,
 559 01e8 0022     		movs	r2, #0	@ tmp372,
 560 01ea 1A70     		strb	r2, [r3]	@ tmp373, digits
 181:code/main.c   ****         Mode = 0x08;  // go to set weight
ARM GAS  /tmp/ccun4gHj.s 			page 14


 561              		.loc 1 181 0
 562 01ec 4F23     		movs	r3, #79	@ tmp374,
 563 01ee 6B44     		add	r3, r3, sp	@ tmp374,
 564 01f0 0822     		movs	r2, #8	@ tmp375,
 565 01f2 1A70     		strb	r2, [r3]	@ tmp376, Mode
 566              	.L35:
 182:code/main.c   ****       }
 183:code/main.c   ****     }
 184:code/main.c   **** 
 185:code/main.c   **** //    if(read_nMode() == 0){ 
 186:code/main.c   **** //      if ( Mode > 0x06 ){
 187:code/main.c   **** //        Mode = 0x00;  // back to odometer
 188:code/main.c   **** //      }
 189:code/main.c   **** //     else {
 190:code/main.c   **** //       Mode = Mode + 1; // go to next Mode
 191:code/main.c   **** //      }
 192:code/main.c   **** //    }
 193:code/main.c   **** 
 194:code/main.c   ****     switch (Mode) {
 567              		.loc 1 194 0
 568 01f4 4F23     		movs	r3, #79	@ tmp377,
 569 01f6 6B44     		add	r3, r3, sp	@ tmp377,
 570 01f8 1B78     		ldrb	r3, [r3]	@ D.4613, Mode
 571 01fa 082B     		cmp	r3, #8	@ D.4613,
 572 01fc 00D9     		bls	.LCB400	@
 573 01fe 17E3     		b	.L37	@long jump	@
 574              	.LCB400:
 575 0200 9A00     		lsls	r2, r3, #2	@ tmp378, D.4613,
 576 0202 D94B     		ldr	r3, .L78	@ tmp380,
 577 0204 D318     		adds	r3, r2, r3	@ tmp379, tmp378, tmp380
 578 0206 1B68     		ldr	r3, [r3]	@ tmp381,
 579 0208 9F46     		mov	pc, r3	@ tmp381
 580              		.section	.rodata
 581              		.align	2
 582              	.L39:
 583 0000 0A020000 		.word	.L38
 584 0004 B4020000 		.word	.L40
 585 0008 6A030000 		.word	.L41
 586 000c 08040000 		.word	.L42
 587 0010 AE040000 		.word	.L43
 588 0014 6C050000 		.word	.L44
 589 0018 16060000 		.word	.L45
 590 001c C0060000 		.word	.L46
 591 0020 78070000 		.word	.L47
 592              		.text
 593              	.L38:
 195:code/main.c   ****       case 0x00: // odometer        range: 00.0 ~ 99.9 km
 196:code/main.c   ****               if (!read_nTrip()){
 594              		.loc 1 196 0
 595 020a FFF7FEFF 		bl	read_nTrip	@
 596 020e 031E     		subs	r3, r0, #0	@ D.4612,,
 597 0210 01D1     		bne	.L48	@,
 197:code/main.c   ****                 fork_counter = 0x00000000;
 598              		.loc 1 197 0
 599 0212 0023     		movs	r3, #0	@ tmp382,
 600 0214 1293     		str	r3, [sp, #72]	@ tmp382, fork_counter
 601              	.L48:
ARM GAS  /tmp/ccun4gHj.s 			page 15


 198:code/main.c   ****               }
 199:code/main.c   ****               if (!read_nMode()){
 602              		.loc 1 199 0
 603 0216 FFF7FEFF 		bl	read_nMode	@
 604 021a 031E     		subs	r3, r0, #0	@ D.4612,,
 605 021c 03D1     		bne	.L49	@,
 200:code/main.c   ****                 Mode = 0x01;
 606              		.loc 1 200 0
 607 021e 4F23     		movs	r3, #79	@ tmp383,
 608 0220 6B44     		add	r3, r3, sp	@ tmp383,
 609 0222 0122     		movs	r2, #1	@ tmp384,
 610 0224 1A70     		strb	r2, [r3]	@ tmp385, Mode
 611              	.L49:
 201:code/main.c   ****               } 
 202:code/main.c   **** 
 203:code/main.c   ****               DP = 0x02;
 612              		.loc 1 203 0
 613 0226 2323     		movs	r3, #35	@ tmp386,
 614 0228 6B44     		add	r3, r3, sp	@ tmp386,
 615 022a 0222     		movs	r2, #2	@ tmp387,
 616 022c 1A70     		strb	r2, [r3]	@ tmp388, DP
 204:code/main.c   ****               digits[3] = 0x00;
 617              		.loc 1 204 0
 618 022e 03AB     		add	r3, sp, #12	@ tmp389,,
 619 0230 0022     		movs	r2, #0	@ tmp390,
 620 0232 DA70     		strb	r2, [r3, #3]	@ tmp391, digits
 205:code/main.c   ****               digits[2] = (odometer%1000)/100;
 621              		.loc 1 205 0
 622 0234 119A     		ldr	r2, [sp, #68]	@ tmp392, odometer
 623 0236 FA23     		movs	r3, #250	@ tmp922,
 624 0238 9900     		lsls	r1, r3, #2	@, tmp922,
 625 023a 1000     		movs	r0, r2	@, tmp392
 626 023c FFF7FEFF 		bl	__aeabi_uidivmod	@
 627 0240 0B00     		movs	r3, r1	@ tmp397,
 628 0242 6421     		movs	r1, #100	@,
 629 0244 1800     		movs	r0, r3	@, D.4612
 630 0246 FFF7FEFF 		bl	__aeabi_uidiv	@
 631 024a 0300     		movs	r3, r0	@ tmp400,
 632 024c DAB2     		uxtb	r2, r3	@ D.4611, D.4612
 633 024e 03AB     		add	r3, sp, #12	@ tmp401,,
 634 0250 9A70     		strb	r2, [r3, #2]	@ tmp402, digits
 206:code/main.c   ****               digits[1] = (odometer%100)/10; 
 635              		.loc 1 206 0
 636 0252 119B     		ldr	r3, [sp, #68]	@ tmp403, odometer
 637 0254 6421     		movs	r1, #100	@,
 638 0256 1800     		movs	r0, r3	@, tmp403
 639 0258 FFF7FEFF 		bl	__aeabi_uidivmod	@
 640 025c 0B00     		movs	r3, r1	@ tmp408,
 641 025e 0A21     		movs	r1, #10	@,
 642 0260 1800     		movs	r0, r3	@, D.4612
 643 0262 FFF7FEFF 		bl	__aeabi_uidiv	@
 644 0266 0300     		movs	r3, r0	@ tmp411,
 645 0268 DAB2     		uxtb	r2, r3	@ D.4611, D.4612
 646 026a 03AB     		add	r3, sp, #12	@ tmp412,,
 647 026c 5A70     		strb	r2, [r3, #1]	@ tmp413, digits
 207:code/main.c   ****               digits[0] = (odometer%100)%10;
 648              		.loc 1 207 0
ARM GAS  /tmp/ccun4gHj.s 			page 16


 649 026e 119B     		ldr	r3, [sp, #68]	@ tmp414, odometer
 650 0270 6421     		movs	r1, #100	@,
 651 0272 1800     		movs	r0, r3	@, tmp414
 652 0274 FFF7FEFF 		bl	__aeabi_uidivmod	@
 653 0278 0B00     		movs	r3, r1	@ tmp419,
 654 027a 0A21     		movs	r1, #10	@,
 655 027c 1800     		movs	r0, r3	@, D.4612
 656 027e FFF7FEFF 		bl	__aeabi_uidivmod	@
 657 0282 0B00     		movs	r3, r1	@ tmp424,
 658 0284 DAB2     		uxtb	r2, r3	@ D.4611, D.4612
 659 0286 03AB     		add	r3, sp, #12	@ tmp425,,
 660 0288 1A70     		strb	r2, [r3]	@ tmp426, digits
 208:code/main.c   **** 
 209:code/main.c   ****               write_led(connect_digits(DP, digits[3], digits[2], digits[1], digits[0]));
 661              		.loc 1 209 0
 662 028a 03AB     		add	r3, sp, #12	@ tmp427,,
 663 028c D978     		ldrb	r1, [r3, #3]	@ D.4611,
 664 028e 03AB     		add	r3, sp, #12	@ tmp428,,
 665 0290 9C78     		ldrb	r4, [r3, #2]	@ D.4611,
 666 0292 03AB     		add	r3, sp, #12	@ tmp429,,
 667 0294 5D78     		ldrb	r5, [r3, #1]	@ D.4611,
 668 0296 03AB     		add	r3, sp, #12	@ tmp430,,
 669 0298 1B78     		ldrb	r3, [r3]	@ D.4611, digits
 670 029a 2322     		movs	r2, #35	@ tmp431,
 671 029c 6A44     		add	r2, r2, sp	@ tmp431,
 672 029e 1078     		ldrb	r0, [r2]	@ tmp432, DP
 673 02a0 0093     		str	r3, [sp]	@ D.4611,
 674 02a2 2B00     		movs	r3, r5	@, D.4611
 675 02a4 2200     		movs	r2, r4	@, D.4611
 676 02a6 FFF7FEFF 		bl	connect_digits	@
 677 02aa 0300     		movs	r3, r0	@ D.4612,
 678 02ac 1800     		movs	r0, r3	@, D.4612
 679 02ae FFF7FEFF 		bl	write_led	@
 210:code/main.c   **** 
 211:code/main.c   ****         break;
 680              		.loc 1 211 0
 681 02b2 E2E2     		b	.L50	@
 682              	.L40:
 212:code/main.c   ****       case 0x01: // trip timer      time rage : 0.00 ~ 9.59 
 213:code/main.c   ****               if(!read_nTrip()){ 
 683              		.loc 1 213 0
 684 02b4 FFF7FEFF 		bl	read_nTrip	@
 685 02b8 031E     		subs	r3, r0, #0	@ D.4612,,
 686 02ba 01D1     		bne	.L51	@,
 214:code/main.c   ****                 accumulate_time = 0x00000000;
 687              		.loc 1 214 0
 688 02bc 0023     		movs	r3, #0	@ tmp433,
 689 02be 0F93     		str	r3, [sp, #60]	@ tmp433, accumulate_time
 690              	.L51:
 215:code/main.c   ****               }
 216:code/main.c   ****               if(!read_nMode()){
 691              		.loc 1 216 0
 692 02c0 FFF7FEFF 		bl	read_nMode	@
 693 02c4 031E     		subs	r3, r0, #0	@ D.4612,,
 694 02c6 03D1     		bne	.L52	@,
 217:code/main.c   ****                 Mode = 0x02;
 695              		.loc 1 217 0
ARM GAS  /tmp/ccun4gHj.s 			page 17


 696 02c8 4F23     		movs	r3, #79	@ tmp434,
 697 02ca 6B44     		add	r3, r3, sp	@ tmp434,
 698 02cc 0222     		movs	r2, #2	@ tmp435,
 699 02ce 1A70     		strb	r2, [r3]	@ tmp436, Mode
 700              	.L52:
 218:code/main.c   ****               }
 219:code/main.c   **** 
 220:code/main.c   ****               DP = 0x04;
 701              		.loc 1 220 0
 702 02d0 2323     		movs	r3, #35	@ tmp437,
 703 02d2 6B44     		add	r3, r3, sp	@ tmp437,
 704 02d4 0422     		movs	r2, #4	@ tmp438,
 705 02d6 1A70     		strb	r2, [r3]	@ tmp439, DP
 221:code/main.c   ****               minute = time/60;
 706              		.loc 1 221 0
 707 02d8 109B     		ldr	r3, [sp, #64]	@ tmp441, time
 708 02da 3C21     		movs	r1, #60	@,
 709 02dc 1800     		movs	r0, r3	@, tmp441
 710 02de FFF7FEFF 		bl	__aeabi_uidiv	@
 711 02e2 0300     		movs	r3, r0	@ tmp444,
 712 02e4 0493     		str	r3, [sp, #16]	@ tmp444, minute
 222:code/main.c   **** 	      digits[3] = 0x01;
 713              		.loc 1 222 0
 714 02e6 03AB     		add	r3, sp, #12	@ tmp445,,
 715 02e8 0122     		movs	r2, #1	@ tmp446,
 716 02ea DA70     		strb	r2, [r3, #3]	@ tmp447, digits
 223:code/main.c   ****               digits[2] = (minute/60)%10;
 717              		.loc 1 223 0
 718 02ec 049B     		ldr	r3, [sp, #16]	@ tmp448, minute
 719 02ee 3C21     		movs	r1, #60	@,
 720 02f0 1800     		movs	r0, r3	@, tmp448
 721 02f2 FFF7FEFF 		bl	__aeabi_uidiv	@
 722 02f6 0300     		movs	r3, r0	@ tmp451,
 723 02f8 0A21     		movs	r1, #10	@,
 724 02fa 1800     		movs	r0, r3	@, D.4612
 725 02fc FFF7FEFF 		bl	__aeabi_uidivmod	@
 726 0300 0B00     		movs	r3, r1	@ tmp456,
 727 0302 DAB2     		uxtb	r2, r3	@ D.4611, D.4612
 728 0304 03AB     		add	r3, sp, #12	@ tmp457,,
 729 0306 9A70     		strb	r2, [r3, #2]	@ tmp458, digits
 224:code/main.c   ****               digits[1] = (minute%60)/10;
 730              		.loc 1 224 0
 731 0308 049B     		ldr	r3, [sp, #16]	@ tmp459, minute
 732 030a 3C21     		movs	r1, #60	@,
 733 030c 1800     		movs	r0, r3	@, tmp459
 734 030e FFF7FEFF 		bl	__aeabi_uidivmod	@
 735 0312 0B00     		movs	r3, r1	@ tmp464,
 736 0314 0A21     		movs	r1, #10	@,
 737 0316 1800     		movs	r0, r3	@, D.4612
 738 0318 FFF7FEFF 		bl	__aeabi_uidiv	@
 739 031c 0300     		movs	r3, r0	@ tmp467,
 740 031e DAB2     		uxtb	r2, r3	@ D.4611, D.4612
 741 0320 03AB     		add	r3, sp, #12	@ tmp468,,
 742 0322 5A70     		strb	r2, [r3, #1]	@ tmp469, digits
 225:code/main.c   **** 	      digits[0] = (minute%60)%10;
 743              		.loc 1 225 0
 744 0324 049B     		ldr	r3, [sp, #16]	@ tmp470, minute
ARM GAS  /tmp/ccun4gHj.s 			page 18


 745 0326 3C21     		movs	r1, #60	@,
 746 0328 1800     		movs	r0, r3	@, tmp470
 747 032a FFF7FEFF 		bl	__aeabi_uidivmod	@
 748 032e 0B00     		movs	r3, r1	@ tmp475,
 749 0330 0A21     		movs	r1, #10	@,
 750 0332 1800     		movs	r0, r3	@, D.4612
 751 0334 FFF7FEFF 		bl	__aeabi_uidivmod	@
 752 0338 0B00     		movs	r3, r1	@ tmp480,
 753 033a DAB2     		uxtb	r2, r3	@ D.4611, D.4612
 754 033c 03AB     		add	r3, sp, #12	@ tmp481,,
 755 033e 1A70     		strb	r2, [r3]	@ tmp482, digits
 226:code/main.c   **** 
 227:code/main.c   **** 	      write_led(connect_digits(DP, digits[3], digits[2], digits[1], digits[0]));
 756              		.loc 1 227 0
 757 0340 03AB     		add	r3, sp, #12	@ tmp483,,
 758 0342 D978     		ldrb	r1, [r3, #3]	@ D.4611,
 759 0344 03AB     		add	r3, sp, #12	@ tmp484,,
 760 0346 9C78     		ldrb	r4, [r3, #2]	@ D.4611,
 761 0348 03AB     		add	r3, sp, #12	@ tmp485,,
 762 034a 5D78     		ldrb	r5, [r3, #1]	@ D.4611,
 763 034c 03AB     		add	r3, sp, #12	@ tmp486,,
 764 034e 1B78     		ldrb	r3, [r3]	@ D.4611, digits
 765 0350 2322     		movs	r2, #35	@ tmp487,
 766 0352 6A44     		add	r2, r2, sp	@ tmp487,
 767 0354 1078     		ldrb	r0, [r2]	@ tmp488, DP
 768 0356 0093     		str	r3, [sp]	@ D.4611,
 769 0358 2B00     		movs	r3, r5	@, D.4611
 770 035a 2200     		movs	r2, r4	@, D.4611
 771 035c FFF7FEFF 		bl	connect_digits	@
 772 0360 0300     		movs	r3, r0	@ D.4612,
 773 0362 1800     		movs	r0, r3	@, D.4612
 774 0364 FFF7FEFF 		bl	write_led	@
 228:code/main.c   **** 
 229:code/main.c   ****         break;
 775              		.loc 1 229 0
 776 0368 87E2     		b	.L50	@
 777              	.L41:
 230:code/main.c   ****       case 0x02: // speedometer      range:  00.0 ~ 99.9 km/h
 231:code/main.c   ****               if(!read_nMode()){
 778              		.loc 1 231 0
 779 036a FFF7FEFF 		bl	read_nMode	@
 780 036e 031E     		subs	r3, r0, #0	@ D.4612,,
 781 0370 03D1     		bne	.L53	@,
 232:code/main.c   ****                 Mode = 0x03;
 782              		.loc 1 232 0
 783 0372 4F23     		movs	r3, #79	@ tmp489,
 784 0374 6B44     		add	r3, r3, sp	@ tmp489,
 785 0376 0322     		movs	r2, #3	@ tmp490,
 786 0378 1A70     		strb	r2, [r3]	@ tmp491, Mode
 787              	.L53:
 233:code/main.c   ****               }
 234:code/main.c   ****               
 235:code/main.c   ****               DP = 0x02;
 788              		.loc 1 235 0
 789 037a 2323     		movs	r3, #35	@ tmp492,
 790 037c 6B44     		add	r3, r3, sp	@ tmp492,
 791 037e 0222     		movs	r2, #2	@ tmp493,
ARM GAS  /tmp/ccun4gHj.s 			page 19


 792 0380 1A70     		strb	r2, [r3]	@ tmp494, DP
 236:code/main.c   ****               digits[3] = 0x02;
 793              		.loc 1 236 0
 794 0382 03AB     		add	r3, sp, #12	@ tmp495,,
 795 0384 0222     		movs	r2, #2	@ tmp496,
 796 0386 DA70     		strb	r2, [r3, #3]	@ tmp497, digits
 237:code/main.c   ****               digits[2] = (speedometer%1000)/100;  
 797              		.loc 1 237 0
 798 0388 0C9A     		ldr	r2, [sp, #48]	@ tmp498, speedometer
 799 038a FA23     		movs	r3, #250	@ tmp921,
 800 038c 9900     		lsls	r1, r3, #2	@, tmp921,
 801 038e 1000     		movs	r0, r2	@, tmp498
 802 0390 FFF7FEFF 		bl	__aeabi_uidivmod	@
 803 0394 0B00     		movs	r3, r1	@ tmp503,
 804 0396 6421     		movs	r1, #100	@,
 805 0398 1800     		movs	r0, r3	@, D.4612
 806 039a FFF7FEFF 		bl	__aeabi_uidiv	@
 807 039e 0300     		movs	r3, r0	@ tmp506,
 808 03a0 DAB2     		uxtb	r2, r3	@ D.4611, D.4612
 809 03a2 03AB     		add	r3, sp, #12	@ tmp507,,
 810 03a4 9A70     		strb	r2, [r3, #2]	@ tmp508, digits
 238:code/main.c   ****               digits[1] = (speedometer%100)/10; 
 811              		.loc 1 238 0
 812 03a6 0C9B     		ldr	r3, [sp, #48]	@ tmp509, speedometer
 813 03a8 6421     		movs	r1, #100	@,
 814 03aa 1800     		movs	r0, r3	@, tmp509
 815 03ac FFF7FEFF 		bl	__aeabi_uidivmod	@
 816 03b0 0B00     		movs	r3, r1	@ tmp514,
 817 03b2 0A21     		movs	r1, #10	@,
 818 03b4 1800     		movs	r0, r3	@, D.4612
 819 03b6 FFF7FEFF 		bl	__aeabi_uidiv	@
 820 03ba 0300     		movs	r3, r0	@ tmp517,
 821 03bc DAB2     		uxtb	r2, r3	@ D.4611, D.4612
 822 03be 03AB     		add	r3, sp, #12	@ tmp518,,
 823 03c0 5A70     		strb	r2, [r3, #1]	@ tmp519, digits
 239:code/main.c   ****               digits[0] = (speedometer%100)%10;
 824              		.loc 1 239 0
 825 03c2 0C9B     		ldr	r3, [sp, #48]	@ tmp520, speedometer
 826 03c4 6421     		movs	r1, #100	@,
 827 03c6 1800     		movs	r0, r3	@, tmp520
 828 03c8 FFF7FEFF 		bl	__aeabi_uidivmod	@
 829 03cc 0B00     		movs	r3, r1	@ tmp525,
 830 03ce 0A21     		movs	r1, #10	@,
 831 03d0 1800     		movs	r0, r3	@, D.4612
 832 03d2 FFF7FEFF 		bl	__aeabi_uidivmod	@
 833 03d6 0B00     		movs	r3, r1	@ tmp530,
 834 03d8 DAB2     		uxtb	r2, r3	@ D.4611, D.4612
 835 03da 03AB     		add	r3, sp, #12	@ tmp531,,
 836 03dc 1A70     		strb	r2, [r3]	@ tmp532, digits
 240:code/main.c   ****               
 241:code/main.c   ****               write_led(connect_digits(DP, digits[3], digits[2], digits[1], digits[0]));
 837              		.loc 1 241 0
 838 03de 03AB     		add	r3, sp, #12	@ tmp533,,
 839 03e0 D978     		ldrb	r1, [r3, #3]	@ D.4611,
 840 03e2 03AB     		add	r3, sp, #12	@ tmp534,,
 841 03e4 9C78     		ldrb	r4, [r3, #2]	@ D.4611,
 842 03e6 03AB     		add	r3, sp, #12	@ tmp535,,
ARM GAS  /tmp/ccun4gHj.s 			page 20


 843 03e8 5D78     		ldrb	r5, [r3, #1]	@ D.4611,
 844 03ea 03AB     		add	r3, sp, #12	@ tmp536,,
 845 03ec 1B78     		ldrb	r3, [r3]	@ D.4611, digits
 846 03ee 2322     		movs	r2, #35	@ tmp537,
 847 03f0 6A44     		add	r2, r2, sp	@ tmp537,
 848 03f2 1078     		ldrb	r0, [r2]	@ tmp538, DP
 849 03f4 0093     		str	r3, [sp]	@ D.4611,
 850 03f6 2B00     		movs	r3, r5	@, D.4611
 851 03f8 2200     		movs	r2, r4	@, D.4611
 852 03fa FFF7FEFF 		bl	connect_digits	@
 853 03fe 0300     		movs	r3, r0	@ D.4612,
 854 0400 1800     		movs	r0, r3	@, D.4612
 855 0402 FFF7FEFF 		bl	write_led	@
 242:code/main.c   **** 
 243:code/main.c   ****         break;
 856              		.loc 1 243 0
 857 0406 38E2     		b	.L50	@
 858              	.L42:
 244:code/main.c   ****       case 0x03: // cadence meter
 245:code/main.c   ****               if(!read_nMode()){
 859              		.loc 1 245 0
 860 0408 FFF7FEFF 		bl	read_nMode	@
 861 040c 031E     		subs	r3, r0, #0	@ D.4612,,
 862 040e 07D1     		bne	.L54	@,
 246:code/main.c   ****                 Mode = 0x04;
 863              		.loc 1 246 0
 864 0410 4F23     		movs	r3, #79	@ tmp539,
 865 0412 6B44     		add	r3, r3, sp	@ tmp539,
 866 0414 0422     		movs	r2, #4	@ tmp540,
 867 0416 1A70     		strb	r2, [r3]	@ tmp541, Mode
 247:code/main.c   ****                 display = true;
 868              		.loc 1 247 0
 869 0418 1F23     		movs	r3, #31	@ tmp542,
 870 041a 6B44     		add	r3, r3, sp	@ tmp542,
 871 041c 0122     		movs	r2, #1	@ tmp543,
 872 041e 1A70     		strb	r2, [r3]	@ tmp544, display
 873              	.L54:
 248:code/main.c   ****               }
 249:code/main.c   **** 
 250:code/main.c   ****               DP = 0x01;
 874              		.loc 1 250 0
 875 0420 2323     		movs	r3, #35	@ tmp545,
 876 0422 6B44     		add	r3, r3, sp	@ tmp545,
 877 0424 0122     		movs	r2, #1	@ tmp546,
 878 0426 1A70     		strb	r2, [r3]	@ tmp547, DP
 251:code/main.c   ****               digits[3] = 0x03;
 879              		.loc 1 251 0
 880 0428 03AB     		add	r3, sp, #12	@ tmp548,,
 881 042a 0322     		movs	r2, #3	@ tmp549,
 882 042c DA70     		strb	r2, [r3, #3]	@ tmp550, digits
 252:code/main.c   ****               digits[2] = (cadence_meter%1000)/100; 
 883              		.loc 1 252 0
 884 042e 0A9A     		ldr	r2, [sp, #40]	@ tmp551, cadence_meter
 885 0430 FA23     		movs	r3, #250	@ tmp920,
 886 0432 9900     		lsls	r1, r3, #2	@, tmp920,
 887 0434 1000     		movs	r0, r2	@, tmp551
 888 0436 FFF7FEFF 		bl	__aeabi_uidivmod	@
ARM GAS  /tmp/ccun4gHj.s 			page 21


 889 043a 0B00     		movs	r3, r1	@ tmp556,
 890 043c 6421     		movs	r1, #100	@,
 891 043e 1800     		movs	r0, r3	@, D.4612
 892 0440 FFF7FEFF 		bl	__aeabi_uidiv	@
 893 0444 0300     		movs	r3, r0	@ tmp559,
 894 0446 DAB2     		uxtb	r2, r3	@ D.4611, D.4612
 895 0448 03AB     		add	r3, sp, #12	@ tmp560,,
 896 044a 9A70     		strb	r2, [r3, #2]	@ tmp561, digits
 253:code/main.c   ****               digits[1] = (cadence_meter%100)/10; 
 897              		.loc 1 253 0
 898 044c 0A9B     		ldr	r3, [sp, #40]	@ tmp562, cadence_meter
 899 044e 6421     		movs	r1, #100	@,
 900 0450 1800     		movs	r0, r3	@, tmp562
 901 0452 FFF7FEFF 		bl	__aeabi_uidivmod	@
 902 0456 0B00     		movs	r3, r1	@ tmp567,
 903 0458 0A21     		movs	r1, #10	@,
 904 045a 1800     		movs	r0, r3	@, D.4612
 905 045c FFF7FEFF 		bl	__aeabi_uidiv	@
 906 0460 0300     		movs	r3, r0	@ tmp570,
 907 0462 DAB2     		uxtb	r2, r3	@ D.4611, D.4612
 908 0464 03AB     		add	r3, sp, #12	@ tmp571,,
 909 0466 5A70     		strb	r2, [r3, #1]	@ tmp572, digits
 254:code/main.c   ****               digits[0] = (cadence_meter%100)%10; 
 910              		.loc 1 254 0
 911 0468 0A9B     		ldr	r3, [sp, #40]	@ tmp573, cadence_meter
 912 046a 6421     		movs	r1, #100	@,
 913 046c 1800     		movs	r0, r3	@, tmp573
 914 046e FFF7FEFF 		bl	__aeabi_uidivmod	@
 915 0472 0B00     		movs	r3, r1	@ tmp578,
 916 0474 0A21     		movs	r1, #10	@,
 917 0476 1800     		movs	r0, r3	@, D.4612
 918 0478 FFF7FEFF 		bl	__aeabi_uidivmod	@
 919 047c 0B00     		movs	r3, r1	@ tmp583,
 920 047e DAB2     		uxtb	r2, r3	@ D.4611, D.4612
 921 0480 03AB     		add	r3, sp, #12	@ tmp584,,
 922 0482 1A70     		strb	r2, [r3]	@ tmp585, digits
 255:code/main.c   **** 
 256:code/main.c   **** 	      write_led(connect_digits(DP, digits[3], digits[2], digits[1], digits[0]));
 923              		.loc 1 256 0
 924 0484 03AB     		add	r3, sp, #12	@ tmp586,,
 925 0486 D978     		ldrb	r1, [r3, #3]	@ D.4611,
 926 0488 03AB     		add	r3, sp, #12	@ tmp587,,
 927 048a 9C78     		ldrb	r4, [r3, #2]	@ D.4611,
 928 048c 03AB     		add	r3, sp, #12	@ tmp588,,
 929 048e 5D78     		ldrb	r5, [r3, #1]	@ D.4611,
 930 0490 03AB     		add	r3, sp, #12	@ tmp589,,
 931 0492 1B78     		ldrb	r3, [r3]	@ D.4611, digits
 932 0494 2322     		movs	r2, #35	@ tmp590,
 933 0496 6A44     		add	r2, r2, sp	@ tmp590,
 934 0498 1078     		ldrb	r0, [r2]	@ tmp591, DP
 935 049a 0093     		str	r3, [sp]	@ D.4611,
 936 049c 2B00     		movs	r3, r5	@, D.4611
 937 049e 2200     		movs	r2, r4	@, D.4611
 938 04a0 FFF7FEFF 		bl	connect_digits	@
 939 04a4 0300     		movs	r3, r0	@ D.4612,
 940 04a6 1800     		movs	r0, r3	@, D.4612
 941 04a8 FFF7FEFF 		bl	write_led	@
ARM GAS  /tmp/ccun4gHj.s 			page 22


 257:code/main.c   ****         break;
 942              		.loc 1 257 0
 943 04ac E5E1     		b	.L50	@
 944              	.L43:
 258:code/main.c   ****       case 0x04: // average speed
 259:code/main.c   **** 	      if(read_nTrip() == 0){
 945              		.loc 1 259 0
 946 04ae FFF7FEFF 		bl	read_nTrip	@
 947 04b2 031E     		subs	r3, r0, #0	@ D.4612,,
 948 04b4 03D1     		bne	.L55	@,
 260:code/main.c   **** 		fork_counter = 0x00000000;
 949              		.loc 1 260 0
 950 04b6 0023     		movs	r3, #0	@ tmp592,
 951 04b8 1293     		str	r3, [sp, #72]	@ tmp592, fork_counter
 261:code/main.c   ****                 time = 0x00000000;
 952              		.loc 1 261 0
 953 04ba 0023     		movs	r3, #0	@ tmp593,
 954 04bc 1093     		str	r3, [sp, #64]	@ tmp593, time
 955              	.L55:
 262:code/main.c   ****               }
 263:code/main.c   ****               if(!read_nMode()){
 956              		.loc 1 263 0
 957 04be FFF7FEFF 		bl	read_nMode	@
 958 04c2 031E     		subs	r3, r0, #0	@ D.4612,,
 959 04c4 03D1     		bne	.L56	@,
 264:code/main.c   ****                 Mode = 0x05;
 960              		.loc 1 264 0
 961 04c6 4F23     		movs	r3, #79	@ tmp594,
 962 04c8 6B44     		add	r3, r3, sp	@ tmp594,
 963 04ca 0522     		movs	r2, #5	@ tmp595,
 964 04cc 1A70     		strb	r2, [r3]	@ tmp596, Mode
 965              	.L56:
 265:code/main.c   ****               }
 266:code/main.c   **** 
 267:code/main.c   ****               if (display){
 966              		.loc 1 267 0
 967 04ce 1F23     		movs	r3, #31	@ tmp597,
 968 04d0 6B44     		add	r3, r3, sp	@ tmp597,
 969 04d2 1B78     		ldrb	r3, [r3]	@ tmp598, display
 970 04d4 002B     		cmp	r3, #0	@ tmp598,
 971 04d6 31D0     		beq	.L57	@,
 268:code/main.c   ****                 DP = 0x02;
 972              		.loc 1 268 0
 973 04d8 2323     		movs	r3, #35	@ tmp599,
 974 04da 6B44     		add	r3, r3, sp	@ tmp599,
 975 04dc 0222     		movs	r2, #2	@ tmp600,
 976 04de 1A70     		strb	r2, [r3]	@ tmp601, DP
 269:code/main.c   ****                 digits[3] = 0x04;
 977              		.loc 1 269 0
 978 04e0 03AB     		add	r3, sp, #12	@ tmp602,,
 979 04e2 0422     		movs	r2, #4	@ tmp603,
 980 04e4 DA70     		strb	r2, [r3, #3]	@ tmp604, digits
 270:code/main.c   ****                 digits[2] = (av_ssni_419%1000)/100;
 981              		.loc 1 270 0
 982 04e6 0E9A     		ldr	r2, [sp, #56]	@ tmp605, av_ssni_419
 983 04e8 FA23     		movs	r3, #250	@ tmp919,
 984 04ea 9900     		lsls	r1, r3, #2	@, tmp919,
ARM GAS  /tmp/ccun4gHj.s 			page 23


 985 04ec 1000     		movs	r0, r2	@, tmp605
 986 04ee FFF7FEFF 		bl	__aeabi_uidivmod	@
 987 04f2 0B00     		movs	r3, r1	@ tmp610,
 988 04f4 6421     		movs	r1, #100	@,
 989 04f6 1800     		movs	r0, r3	@, D.4612
 990 04f8 FFF7FEFF 		bl	__aeabi_uidiv	@
 991 04fc 0300     		movs	r3, r0	@ tmp613,
 992 04fe DAB2     		uxtb	r2, r3	@ D.4611, D.4612
 993 0500 03AB     		add	r3, sp, #12	@ tmp614,,
 994 0502 9A70     		strb	r2, [r3, #2]	@ tmp615, digits
 271:code/main.c   ****                 digits[1] = (av_ssni_419%100)/10; 
 995              		.loc 1 271 0
 996 0504 0E9B     		ldr	r3, [sp, #56]	@ tmp616, av_ssni_419
 997 0506 6421     		movs	r1, #100	@,
 998 0508 1800     		movs	r0, r3	@, tmp616
 999 050a FFF7FEFF 		bl	__aeabi_uidivmod	@
 1000 050e 0B00     		movs	r3, r1	@ tmp621,
 1001 0510 0A21     		movs	r1, #10	@,
 1002 0512 1800     		movs	r0, r3	@, D.4612
 1003 0514 FFF7FEFF 		bl	__aeabi_uidiv	@
 1004 0518 0300     		movs	r3, r0	@ tmp624,
 1005 051a DAB2     		uxtb	r2, r3	@ D.4611, D.4612
 1006 051c 03AB     		add	r3, sp, #12	@ tmp625,,
 1007 051e 5A70     		strb	r2, [r3, #1]	@ tmp626, digits
 272:code/main.c   ****                 digits[0] = (av_ssni_419%100)%10;
 1008              		.loc 1 272 0
 1009 0520 0E9B     		ldr	r3, [sp, #56]	@ tmp627, av_ssni_419
 1010 0522 6421     		movs	r1, #100	@,
 1011 0524 1800     		movs	r0, r3	@, tmp627
 1012 0526 FFF7FEFF 		bl	__aeabi_uidivmod	@
 1013 052a 0B00     		movs	r3, r1	@ tmp632,
 1014 052c 0A21     		movs	r1, #10	@,
 1015 052e 1800     		movs	r0, r3	@, D.4612
 1016 0530 FFF7FEFF 		bl	__aeabi_uidivmod	@
 1017 0534 0B00     		movs	r3, r1	@ tmp637,
 1018 0536 DAB2     		uxtb	r2, r3	@ D.4611, D.4612
 1019 0538 03AB     		add	r3, sp, #12	@ tmp638,,
 1020 053a 1A70     		strb	r2, [r3]	@ tmp639, digits
 1021              	.L57:
 273:code/main.c   ****               }
 274:code/main.c   **** 
 275:code/main.c   **** 	      write_led(connect_digits(DP, digits[3], digits[2], digits[1], digits[0]));
 1022              		.loc 1 275 0
 1023 053c 03AB     		add	r3, sp, #12	@ tmp640,,
 1024 053e D978     		ldrb	r1, [r3, #3]	@ D.4611,
 1025 0540 03AB     		add	r3, sp, #12	@ tmp641,,
 1026 0542 9C78     		ldrb	r4, [r3, #2]	@ D.4611,
 1027 0544 03AB     		add	r3, sp, #12	@ tmp642,,
 1028 0546 5D78     		ldrb	r5, [r3, #1]	@ D.4611,
 1029 0548 03AB     		add	r3, sp, #12	@ tmp643,,
 1030 054a 1B78     		ldrb	r3, [r3]	@ D.4611, digits
 1031 054c 2322     		movs	r2, #35	@ tmp644,
 1032 054e 6A44     		add	r2, r2, sp	@ tmp644,
 1033 0550 1078     		ldrb	r0, [r2]	@ tmp645, DP
 1034 0552 0093     		str	r3, [sp]	@ D.4611,
 1035 0554 2B00     		movs	r3, r5	@, D.4611
 1036 0556 2200     		movs	r2, r4	@, D.4611
ARM GAS  /tmp/ccun4gHj.s 			page 24


 1037 0558 FFF7FEFF 		bl	connect_digits	@
 1038 055c 0300     		movs	r3, r0	@ D.4612,
 1039 055e 1800     		movs	r0, r3	@, D.4612
 1040 0560 FFF7FEFF 		bl	write_led	@
 276:code/main.c   ****         break;
 1041              		.loc 1 276 0
 1042 0564 89E1     		b	.L50	@
 1043              	.L79:
 1044 0566 C046     		.align	2
 1045              	.L78:
 1046 0568 00000000 		.word	.L39
 1047              	.L44:
 277:code/main.c   ****       case 0x05: // max speed
 278:code/main.c   ****               if(read_nTrip() == 0){
 1048              		.loc 1 278 0
 1049 056c FFF7FEFF 		bl	read_nTrip	@
 1050 0570 031E     		subs	r3, r0, #0	@ D.4612,,
 1051 0572 01D1     		bne	.L58	@,
 279:code/main.c   **** 		max_speed = 0x00000000;
 1052              		.loc 1 279 0
 1053 0574 0023     		movs	r3, #0	@ tmp646,
 1054 0576 0D93     		str	r3, [sp, #52]	@ tmp646, max_speed
 1055              	.L58:
 280:code/main.c   ****               }
 281:code/main.c   ****               if(!read_nMode()){
 1056              		.loc 1 281 0
 1057 0578 FFF7FEFF 		bl	read_nMode	@
 1058 057c 031E     		subs	r3, r0, #0	@ D.4612,,
 1059 057e 03D1     		bne	.L59	@,
 282:code/main.c   ****                 Mode = 0x06;
 1060              		.loc 1 282 0
 1061 0580 4F23     		movs	r3, #79	@ tmp647,
 1062 0582 6B44     		add	r3, r3, sp	@ tmp647,
 1063 0584 0622     		movs	r2, #6	@ tmp648,
 1064 0586 1A70     		strb	r2, [r3]	@ tmp649, Mode
 1065              	.L59:
 283:code/main.c   ****               }
 284:code/main.c   **** 
 285:code/main.c   ****               DP = 0x02;
 1066              		.loc 1 285 0
 1067 0588 2323     		movs	r3, #35	@ tmp650,
 1068 058a 6B44     		add	r3, r3, sp	@ tmp650,
 1069 058c 0222     		movs	r2, #2	@ tmp651,
 1070 058e 1A70     		strb	r2, [r3]	@ tmp652, DP
 286:code/main.c   **** 	      digits[3] = 0x05;
 1071              		.loc 1 286 0
 1072 0590 03AB     		add	r3, sp, #12	@ tmp653,,
 1073 0592 0522     		movs	r2, #5	@ tmp654,
 1074 0594 DA70     		strb	r2, [r3, #3]	@ tmp655, digits
 287:code/main.c   ****               digits[2] = (max_speed%1000)/100;
 1075              		.loc 1 287 0
 1076 0596 0D9A     		ldr	r2, [sp, #52]	@ tmp656, max_speed
 1077 0598 FA23     		movs	r3, #250	@ tmp918,
 1078 059a 9900     		lsls	r1, r3, #2	@, tmp918,
 1079 059c 1000     		movs	r0, r2	@, tmp656
 1080 059e FFF7FEFF 		bl	__aeabi_uidivmod	@
 1081 05a2 0B00     		movs	r3, r1	@ tmp661,
ARM GAS  /tmp/ccun4gHj.s 			page 25


 1082 05a4 6421     		movs	r1, #100	@,
 1083 05a6 1800     		movs	r0, r3	@, D.4612
 1084 05a8 FFF7FEFF 		bl	__aeabi_uidiv	@
 1085 05ac 0300     		movs	r3, r0	@ tmp664,
 1086 05ae DAB2     		uxtb	r2, r3	@ D.4611, D.4612
 1087 05b0 03AB     		add	r3, sp, #12	@ tmp665,,
 1088 05b2 9A70     		strb	r2, [r3, #2]	@ tmp666, digits
 288:code/main.c   ****               digits[1] = (max_speed%100)/10; 
 1089              		.loc 1 288 0
 1090 05b4 0D9B     		ldr	r3, [sp, #52]	@ tmp667, max_speed
 1091 05b6 6421     		movs	r1, #100	@,
 1092 05b8 1800     		movs	r0, r3	@, tmp667
 1093 05ba FFF7FEFF 		bl	__aeabi_uidivmod	@
 1094 05be 0B00     		movs	r3, r1	@ tmp672,
 1095 05c0 0A21     		movs	r1, #10	@,
 1096 05c2 1800     		movs	r0, r3	@, D.4612
 1097 05c4 FFF7FEFF 		bl	__aeabi_uidiv	@
 1098 05c8 0300     		movs	r3, r0	@ tmp675,
 1099 05ca DAB2     		uxtb	r2, r3	@ D.4611, D.4612
 1100 05cc 03AB     		add	r3, sp, #12	@ tmp676,,
 1101 05ce 5A70     		strb	r2, [r3, #1]	@ tmp677, digits
 289:code/main.c   ****               digits[0] = (max_speed%100)%10;
 1102              		.loc 1 289 0
 1103 05d0 0D9B     		ldr	r3, [sp, #52]	@ tmp678, max_speed
 1104 05d2 6421     		movs	r1, #100	@,
 1105 05d4 1800     		movs	r0, r3	@, tmp678
 1106 05d6 FFF7FEFF 		bl	__aeabi_uidivmod	@
 1107 05da 0B00     		movs	r3, r1	@ tmp683,
 1108 05dc 0A21     		movs	r1, #10	@,
 1109 05de 1800     		movs	r0, r3	@, D.4612
 1110 05e0 FFF7FEFF 		bl	__aeabi_uidivmod	@
 1111 05e4 0B00     		movs	r3, r1	@ tmp688,
 1112 05e6 DAB2     		uxtb	r2, r3	@ D.4611, D.4612
 1113 05e8 03AB     		add	r3, sp, #12	@ tmp689,,
 1114 05ea 1A70     		strb	r2, [r3]	@ tmp690, digits
 290:code/main.c   **** 	
 291:code/main.c   **** 	      write_led(connect_digits(DP, digits[3], digits[2], digits[1], digits[0]));
 1115              		.loc 1 291 0
 1116 05ec 03AB     		add	r3, sp, #12	@ tmp691,,
 1117 05ee D978     		ldrb	r1, [r3, #3]	@ D.4611,
 1118 05f0 03AB     		add	r3, sp, #12	@ tmp692,,
 1119 05f2 9C78     		ldrb	r4, [r3, #2]	@ D.4611,
 1120 05f4 03AB     		add	r3, sp, #12	@ tmp693,,
 1121 05f6 5D78     		ldrb	r5, [r3, #1]	@ D.4611,
 1122 05f8 03AB     		add	r3, sp, #12	@ tmp694,,
 1123 05fa 1B78     		ldrb	r3, [r3]	@ D.4611, digits
 1124 05fc 2322     		movs	r2, #35	@ tmp695,
 1125 05fe 6A44     		add	r2, r2, sp	@ tmp695,
 1126 0600 1078     		ldrb	r0, [r2]	@ tmp696, DP
 1127 0602 0093     		str	r3, [sp]	@ D.4611,
 1128 0604 2B00     		movs	r3, r5	@, D.4611
 1129 0606 2200     		movs	r2, r4	@, D.4611
 1130 0608 FFF7FEFF 		bl	connect_digits	@
 1131 060c 0300     		movs	r3, r0	@ D.4612,
 1132 060e 1800     		movs	r0, r3	@, D.4612
 1133 0610 FFF7FEFF 		bl	write_led	@
 292:code/main.c   ****         break;
ARM GAS  /tmp/ccun4gHj.s 			page 26


 1134              		.loc 1 292 0
 1135 0614 31E1     		b	.L50	@
 1136              	.L45:
 293:code/main.c   ****       case 0x06: // calorie cost
 294:code/main.c   ****               if(read_nTrip() == 0){
 1137              		.loc 1 294 0
 1138 0616 FFF7FEFF 		bl	read_nTrip	@
 1139 061a 031E     		subs	r3, r0, #0	@ D.4612,,
 1140 061c 01D1     		bne	.L60	@,
 295:code/main.c   ****                 calorie = 0x00000000;
 1141              		.loc 1 295 0
 1142 061e 0023     		movs	r3, #0	@ tmp697,
 1143 0620 0993     		str	r3, [sp, #36]	@ tmp697, calorie
 1144              	.L60:
 296:code/main.c   ****               }
 297:code/main.c   ****               if(!read_nMode()){
 1145              		.loc 1 297 0
 1146 0622 FFF7FEFF 		bl	read_nMode	@
 1147 0626 031E     		subs	r3, r0, #0	@ D.4612,,
 1148 0628 03D1     		bne	.L61	@,
 298:code/main.c   ****                 Mode = 0x00;
 1149              		.loc 1 298 0
 1150 062a 4F23     		movs	r3, #79	@ tmp698,
 1151 062c 6B44     		add	r3, r3, sp	@ tmp698,
 1152 062e 0022     		movs	r2, #0	@ tmp699,
 1153 0630 1A70     		strb	r2, [r3]	@ tmp700, Mode
 1154              	.L61:
 299:code/main.c   ****               }
 300:code/main.c   **** 
 301:code/main.c   ****               DP = 0x01;
 1155              		.loc 1 301 0
 1156 0632 2323     		movs	r3, #35	@ tmp701,
 1157 0634 6B44     		add	r3, r3, sp	@ tmp701,
 1158 0636 0122     		movs	r2, #1	@ tmp702,
 1159 0638 1A70     		strb	r2, [r3]	@ tmp703, DP
 302:code/main.c   **** 	      digits[3] = 0x06;
 1160              		.loc 1 302 0
 1161 063a 03AB     		add	r3, sp, #12	@ tmp704,,
 1162 063c 0622     		movs	r2, #6	@ tmp705,
 1163 063e DA70     		strb	r2, [r3, #3]	@ tmp706, digits
 303:code/main.c   ****               digits[2] = (calorie%1000)/100;
 1164              		.loc 1 303 0
 1165 0640 099A     		ldr	r2, [sp, #36]	@ tmp707, calorie
 1166 0642 FA23     		movs	r3, #250	@ tmp917,
 1167 0644 9900     		lsls	r1, r3, #2	@, tmp917,
 1168 0646 1000     		movs	r0, r2	@, tmp707
 1169 0648 FFF7FEFF 		bl	__aeabi_uidivmod	@
 1170 064c 0B00     		movs	r3, r1	@ tmp712,
 1171 064e 6421     		movs	r1, #100	@,
 1172 0650 1800     		movs	r0, r3	@, D.4612
 1173 0652 FFF7FEFF 		bl	__aeabi_uidiv	@
 1174 0656 0300     		movs	r3, r0	@ tmp715,
 1175 0658 DAB2     		uxtb	r2, r3	@ D.4611, D.4612
 1176 065a 03AB     		add	r3, sp, #12	@ tmp716,,
 1177 065c 9A70     		strb	r2, [r3, #2]	@ tmp717, digits
 304:code/main.c   ****               digits[1] = (calorie%100)/10; 
 1178              		.loc 1 304 0
ARM GAS  /tmp/ccun4gHj.s 			page 27


 1179 065e 099B     		ldr	r3, [sp, #36]	@ tmp718, calorie
 1180 0660 6421     		movs	r1, #100	@,
 1181 0662 1800     		movs	r0, r3	@, tmp718
 1182 0664 FFF7FEFF 		bl	__aeabi_uidivmod	@
 1183 0668 0B00     		movs	r3, r1	@ tmp723,
 1184 066a 0A21     		movs	r1, #10	@,
 1185 066c 1800     		movs	r0, r3	@, D.4612
 1186 066e FFF7FEFF 		bl	__aeabi_uidiv	@
 1187 0672 0300     		movs	r3, r0	@ tmp726,
 1188 0674 DAB2     		uxtb	r2, r3	@ D.4611, D.4612
 1189 0676 03AB     		add	r3, sp, #12	@ tmp727,,
 1190 0678 5A70     		strb	r2, [r3, #1]	@ tmp728, digits
 305:code/main.c   ****               digits[0] = (calorie%100)%10;
 1191              		.loc 1 305 0
 1192 067a 099B     		ldr	r3, [sp, #36]	@ tmp729, calorie
 1193 067c 6421     		movs	r1, #100	@,
 1194 067e 1800     		movs	r0, r3	@, tmp729
 1195 0680 FFF7FEFF 		bl	__aeabi_uidivmod	@
 1196 0684 0B00     		movs	r3, r1	@ tmp734,
 1197 0686 0A21     		movs	r1, #10	@,
 1198 0688 1800     		movs	r0, r3	@, D.4612
 1199 068a FFF7FEFF 		bl	__aeabi_uidivmod	@
 1200 068e 0B00     		movs	r3, r1	@ tmp739,
 1201 0690 DAB2     		uxtb	r2, r3	@ D.4611, D.4612
 1202 0692 03AB     		add	r3, sp, #12	@ tmp740,,
 1203 0694 1A70     		strb	r2, [r3]	@ tmp741, digits
 306:code/main.c   **** 
 307:code/main.c   **** 	      write_led(connect_digits(DP, digits[3], digits[2], digits[1], digits[0]));
 1204              		.loc 1 307 0
 1205 0696 03AB     		add	r3, sp, #12	@ tmp742,,
 1206 0698 D978     		ldrb	r1, [r3, #3]	@ D.4611,
 1207 069a 03AB     		add	r3, sp, #12	@ tmp743,,
 1208 069c 9C78     		ldrb	r4, [r3, #2]	@ D.4611,
 1209 069e 03AB     		add	r3, sp, #12	@ tmp744,,
 1210 06a0 5D78     		ldrb	r5, [r3, #1]	@ D.4611,
 1211 06a2 03AB     		add	r3, sp, #12	@ tmp745,,
 1212 06a4 1B78     		ldrb	r3, [r3]	@ D.4611, digits
 1213 06a6 2322     		movs	r2, #35	@ tmp746,
 1214 06a8 6A44     		add	r2, r2, sp	@ tmp746,
 1215 06aa 1078     		ldrb	r0, [r2]	@ tmp747, DP
 1216 06ac 0093     		str	r3, [sp]	@ D.4611,
 1217 06ae 2B00     		movs	r3, r5	@, D.4611
 1218 06b0 2200     		movs	r2, r4	@, D.4611
 1219 06b2 FFF7FEFF 		bl	connect_digits	@
 1220 06b6 0300     		movs	r3, r0	@ D.4612,
 1221 06b8 1800     		movs	r0, r3	@, D.4612
 1222 06ba FFF7FEFF 		bl	write_led	@
 308:code/main.c   ****         break;
 1223              		.loc 1 308 0
 1224 06be DCE0     		b	.L50	@
 1225              	.L46:
 309:code/main.c   ****       case 0x07: // set wheel size   (unit: cm)
 310:code/main.c   **** 	      if ( read_nMode() == 0 ) {
 1226              		.loc 1 310 0
 1227 06c0 FFF7FEFF 		bl	read_nMode	@
 1228 06c4 031E     		subs	r3, r0, #0	@ D.4612,,
 1229 06c6 21D1     		bne	.L62	@,
ARM GAS  /tmp/ccun4gHj.s 			page 28


 311:code/main.c   ****                 if (digit_index!=0x00) {
 1230              		.loc 1 311 0
 1231 06c8 2223     		movs	r3, #34	@ tmp748,
 1232 06ca 6B44     		add	r3, r3, sp	@ tmp748,
 1233 06cc 1B78     		ldrb	r3, [r3]	@ tmp749, digit_index
 1234 06ce 002B     		cmp	r3, #0	@ tmp749,
 1235 06d0 07D0     		beq	.L63	@,
 312:code/main.c   ****                   digit_index--;
 1236              		.loc 1 312 0
 1237 06d2 2223     		movs	r3, #34	@ tmp750,
 1238 06d4 6B44     		add	r3, r3, sp	@ tmp750,
 1239 06d6 1A78     		ldrb	r2, [r3]	@ D.4611, digit_index
 1240 06d8 2223     		movs	r3, #34	@ tmp751,
 1241 06da 6B44     		add	r3, r3, sp	@ tmp751,
 1242 06dc 013A     		subs	r2, r2, #1	@ tmp752,
 1243 06de 1A70     		strb	r2, [r3]	@ tmp753, digit_index
 1244 06e0 14E0     		b	.L62	@
 1245              	.L63:
 313:code/main.c   ****                 }else {
 314:code/main.c   ****                   Mode = 0x00;
 1246              		.loc 1 314 0
 1247 06e2 4F23     		movs	r3, #79	@ tmp754,
 1248 06e4 6B44     		add	r3, r3, sp	@ tmp754,
 1249 06e6 0022     		movs	r2, #0	@ tmp755,
 1250 06e8 1A70     		strb	r2, [r3]	@ tmp756, Mode
 315:code/main.c   ****                   wheel_size = digits[2]*100 + digits[1]*10 + digits[0];
 1251              		.loc 1 315 0
 1252 06ea 03AB     		add	r3, sp, #12	@ tmp757,,
 1253 06ec 9B78     		ldrb	r3, [r3, #2]	@ D.4611,
 1254 06ee 1A00     		movs	r2, r3	@ D.4613, D.4611
 1255 06f0 6423     		movs	r3, #100	@ tmp758,
 1256 06f2 5A43     		muls	r2, r3	@ D.4613, tmp758
 1257 06f4 03AB     		add	r3, sp, #12	@ tmp759,,
 1258 06f6 5B78     		ldrb	r3, [r3, #1]	@ D.4611,
 1259 06f8 1900     		movs	r1, r3	@ D.4613, D.4611
 1260 06fa 0B00     		movs	r3, r1	@ tmp760, D.4613
 1261 06fc 9B00     		lsls	r3, r3, #2	@ tmp760, tmp760,
 1262 06fe 5B18     		adds	r3, r3, r1	@ tmp760, tmp760, D.4613
 1263 0700 5B00     		lsls	r3, r3, #1	@ tmp761, tmp760,
 1264 0702 D318     		adds	r3, r2, r3	@ D.4613, D.4613, D.4613
 1265 0704 03AA     		add	r2, sp, #12	@ tmp762,,
 1266 0706 1278     		ldrb	r2, [r2]	@ D.4611, digits
 1267 0708 9B18     		adds	r3, r3, r2	@ D.4613, D.4613, D.4613
 1268 070a 0593     		str	r3, [sp, #20]	@ D.4613, wheel_size
 1269              	.L62:
 316:code/main.c   ****                 }
 317:code/main.c   ****               }
 318:code/main.c   **** 
 319:code/main.c   ****               if ( read_nTrip() == 0 ) {
 1270              		.loc 1 319 0
 1271 070c FFF7FEFF 		bl	read_nTrip	@
 1272 0710 031E     		subs	r3, r0, #0	@ D.4612,,
 1273 0712 18D1     		bne	.L64	@,
 320:code/main.c   ****                 digits[digit_index] += 1;
 1274              		.loc 1 320 0
 1275 0714 2223     		movs	r3, #34	@ tmp763,
 1276 0716 6B44     		add	r3, r3, sp	@ tmp763,
ARM GAS  /tmp/ccun4gHj.s 			page 29


 1277 0718 1B78     		ldrb	r3, [r3]	@ D.4613, digit_index
 1278 071a 2222     		movs	r2, #34	@ tmp764,
 1279 071c 6A44     		add	r2, r2, sp	@ tmp764,
 1280 071e 1278     		ldrb	r2, [r2]	@ D.4613, digit_index
 1281 0720 03A9     		add	r1, sp, #12	@ tmp765,,
 1282 0722 8A5C     		ldrb	r2, [r1, r2]	@ D.4611, digits
 1283 0724 0132     		adds	r2, r2, #1	@ tmp766,
 1284 0726 D1B2     		uxtb	r1, r2	@ D.4611, tmp766
 1285 0728 03AA     		add	r2, sp, #12	@ tmp767,,
 1286 072a D154     		strb	r1, [r2, r3]	@ tmp768, digits
 321:code/main.c   ****                 if (digits[digit_index] > 0x09) {
 1287              		.loc 1 321 0
 1288 072c 2223     		movs	r3, #34	@ tmp769,
 1289 072e 6B44     		add	r3, r3, sp	@ tmp769,
 1290 0730 1B78     		ldrb	r3, [r3]	@ D.4613, digit_index
 1291 0732 03AA     		add	r2, sp, #12	@ tmp770,,
 1292 0734 D35C     		ldrb	r3, [r2, r3]	@ D.4611, digits
 1293 0736 092B     		cmp	r3, #9	@ D.4611,
 1294 0738 05D9     		bls	.L64	@,
 322:code/main.c   ****                   digits[digit_index] = 0x00;
 1295              		.loc 1 322 0
 1296 073a 2223     		movs	r3, #34	@ tmp771,
 1297 073c 6B44     		add	r3, r3, sp	@ tmp771,
 1298 073e 1B78     		ldrb	r3, [r3]	@ D.4613, digit_index
 1299 0740 03AA     		add	r2, sp, #12	@ tmp772,,
 1300 0742 0021     		movs	r1, #0	@ tmp773,
 1301 0744 D154     		strb	r1, [r2, r3]	@ tmp774, digits
 1302              	.L64:
 323:code/main.c   ****                 }
 324:code/main.c   ****               }  
 325:code/main.c   **** 
 326:code/main.c   ****               DP = 0x01;
 1303              		.loc 1 326 0
 1304 0746 2323     		movs	r3, #35	@ tmp775,
 1305 0748 6B44     		add	r3, r3, sp	@ tmp775,
 1306 074a 0122     		movs	r2, #1	@ tmp776,
 1307 074c 1A70     		strb	r2, [r3]	@ tmp777, DP
 327:code/main.c   **** 	      write_led(connect_digits(DP, digits[3], digits[2], digits[1], digits[0]));
 1308              		.loc 1 327 0
 1309 074e 03AB     		add	r3, sp, #12	@ tmp778,,
 1310 0750 D978     		ldrb	r1, [r3, #3]	@ D.4611,
 1311 0752 03AB     		add	r3, sp, #12	@ tmp779,,
 1312 0754 9C78     		ldrb	r4, [r3, #2]	@ D.4611,
 1313 0756 03AB     		add	r3, sp, #12	@ tmp780,,
 1314 0758 5D78     		ldrb	r5, [r3, #1]	@ D.4611,
 1315 075a 03AB     		add	r3, sp, #12	@ tmp781,,
 1316 075c 1B78     		ldrb	r3, [r3]	@ D.4611, digits
 1317 075e 2322     		movs	r2, #35	@ tmp782,
 1318 0760 6A44     		add	r2, r2, sp	@ tmp782,
 1319 0762 1078     		ldrb	r0, [r2]	@ tmp783, DP
 1320 0764 0093     		str	r3, [sp]	@ D.4611,
 1321 0766 2B00     		movs	r3, r5	@, D.4611
 1322 0768 2200     		movs	r2, r4	@, D.4611
 1323 076a FFF7FEFF 		bl	connect_digits	@
 1324 076e 0300     		movs	r3, r0	@ D.4612,
 1325 0770 1800     		movs	r0, r3	@, D.4612
 1326 0772 FFF7FEFF 		bl	write_led	@
ARM GAS  /tmp/ccun4gHj.s 			page 30


 328:code/main.c   ****         break;
 1327              		.loc 1 328 0
 1328 0776 80E0     		b	.L50	@
 1329              	.L47:
 329:code/main.c   ****       case 0x08: // set weight     (unit: kg)
 330:code/main.c   ****               if ( read_nMode() == 0 ) {
 1330              		.loc 1 330 0
 1331 0778 FFF7FEFF 		bl	read_nMode	@
 1332 077c 031E     		subs	r3, r0, #0	@ D.4612,,
 1333 077e 21D1     		bne	.L65	@,
 331:code/main.c   ****                 if (digit_index!=0x00){
 1334              		.loc 1 331 0
 1335 0780 2223     		movs	r3, #34	@ tmp784,
 1336 0782 6B44     		add	r3, r3, sp	@ tmp784,
 1337 0784 1B78     		ldrb	r3, [r3]	@ tmp785, digit_index
 1338 0786 002B     		cmp	r3, #0	@ tmp785,
 1339 0788 07D0     		beq	.L66	@,
 332:code/main.c   ****                   digit_index--;
 1340              		.loc 1 332 0
 1341 078a 2223     		movs	r3, #34	@ tmp786,
 1342 078c 6B44     		add	r3, r3, sp	@ tmp786,
 1343 078e 1A78     		ldrb	r2, [r3]	@ D.4611, digit_index
 1344 0790 2223     		movs	r3, #34	@ tmp787,
 1345 0792 6B44     		add	r3, r3, sp	@ tmp787,
 1346 0794 013A     		subs	r2, r2, #1	@ tmp788,
 1347 0796 1A70     		strb	r2, [r3]	@ tmp789, digit_index
 1348 0798 14E0     		b	.L65	@
 1349              	.L66:
 333:code/main.c   ****                 }else {
 334:code/main.c   ****                   Mode = 0x00;
 1350              		.loc 1 334 0
 1351 079a 4F23     		movs	r3, #79	@ tmp790,
 1352 079c 6B44     		add	r3, r3, sp	@ tmp790,
 1353 079e 0022     		movs	r2, #0	@ tmp791,
 1354 07a0 1A70     		strb	r2, [r3]	@ tmp792, Mode
 335:code/main.c   ****                   weight = digits[2]*100 + digits[1]*10 + digits[0];
 1355              		.loc 1 335 0
 1356 07a2 03AB     		add	r3, sp, #12	@ tmp793,,
 1357 07a4 9B78     		ldrb	r3, [r3, #2]	@ D.4611,
 1358 07a6 1A00     		movs	r2, r3	@ D.4613, D.4611
 1359 07a8 6423     		movs	r3, #100	@ tmp794,
 1360 07aa 5A43     		muls	r2, r3	@ D.4613, tmp794
 1361 07ac 03AB     		add	r3, sp, #12	@ tmp795,,
 1362 07ae 5B78     		ldrb	r3, [r3, #1]	@ D.4611,
 1363 07b0 1900     		movs	r1, r3	@ D.4613, D.4611
 1364 07b2 0B00     		movs	r3, r1	@ tmp796, D.4613
 1365 07b4 9B00     		lsls	r3, r3, #2	@ tmp796, tmp796,
 1366 07b6 5B18     		adds	r3, r3, r1	@ tmp796, tmp796, D.4613
 1367 07b8 5B00     		lsls	r3, r3, #1	@ tmp797, tmp796,
 1368 07ba D318     		adds	r3, r2, r3	@ D.4613, D.4613, D.4613
 1369 07bc 03AA     		add	r2, sp, #12	@ tmp798,,
 1370 07be 1278     		ldrb	r2, [r2]	@ D.4611, digits
 1371 07c0 9B18     		adds	r3, r3, r2	@ D.4613, D.4613, D.4613
 1372 07c2 0693     		str	r3, [sp, #24]	@ D.4613, weight
 1373              	.L65:
 336:code/main.c   ****                 }
 337:code/main.c   ****               }
ARM GAS  /tmp/ccun4gHj.s 			page 31


 338:code/main.c   **** 
 339:code/main.c   ****               if ( read_nTrip() == 0 ) {
 1374              		.loc 1 339 0
 1375 07c4 FFF7FEFF 		bl	read_nTrip	@
 1376 07c8 031E     		subs	r3, r0, #0	@ D.4612,,
 1377 07ca 18D1     		bne	.L67	@,
 340:code/main.c   ****                 digits[digit_index] += 1;
 1378              		.loc 1 340 0
 1379 07cc 2223     		movs	r3, #34	@ tmp799,
 1380 07ce 6B44     		add	r3, r3, sp	@ tmp799,
 1381 07d0 1B78     		ldrb	r3, [r3]	@ D.4613, digit_index
 1382 07d2 2222     		movs	r2, #34	@ tmp800,
 1383 07d4 6A44     		add	r2, r2, sp	@ tmp800,
 1384 07d6 1278     		ldrb	r2, [r2]	@ D.4613, digit_index
 1385 07d8 03A9     		add	r1, sp, #12	@ tmp801,,
 1386 07da 8A5C     		ldrb	r2, [r1, r2]	@ D.4611, digits
 1387 07dc 0132     		adds	r2, r2, #1	@ tmp802,
 1388 07de D1B2     		uxtb	r1, r2	@ D.4611, tmp802
 1389 07e0 03AA     		add	r2, sp, #12	@ tmp803,,
 1390 07e2 D154     		strb	r1, [r2, r3]	@ tmp804, digits
 341:code/main.c   ****                 if (digits[digit_index] > 0x09) {
 1391              		.loc 1 341 0
 1392 07e4 2223     		movs	r3, #34	@ tmp805,
 1393 07e6 6B44     		add	r3, r3, sp	@ tmp805,
 1394 07e8 1B78     		ldrb	r3, [r3]	@ D.4613, digit_index
 1395 07ea 03AA     		add	r2, sp, #12	@ tmp806,,
 1396 07ec D35C     		ldrb	r3, [r2, r3]	@ D.4611, digits
 1397 07ee 092B     		cmp	r3, #9	@ D.4611,
 1398 07f0 05D9     		bls	.L67	@,
 342:code/main.c   ****                   digits[digit_index] = 0x00;
 1399              		.loc 1 342 0
 1400 07f2 2223     		movs	r3, #34	@ tmp807,
 1401 07f4 6B44     		add	r3, r3, sp	@ tmp807,
 1402 07f6 1B78     		ldrb	r3, [r3]	@ D.4613, digit_index
 1403 07f8 03AA     		add	r2, sp, #12	@ tmp808,,
 1404 07fa 0021     		movs	r1, #0	@ tmp809,
 1405 07fc D154     		strb	r1, [r2, r3]	@ tmp810, digits
 1406              	.L67:
 343:code/main.c   ****                 }
 344:code/main.c   ****               }  
 345:code/main.c   **** 
 346:code/main.c   ****               DP = 0x01;
 1407              		.loc 1 346 0
 1408 07fe 2323     		movs	r3, #35	@ tmp811,
 1409 0800 6B44     		add	r3, r3, sp	@ tmp811,
 1410 0802 0122     		movs	r2, #1	@ tmp812,
 1411 0804 1A70     		strb	r2, [r3]	@ tmp813, DP
 347:code/main.c   **** 	      write_led(connect_digits(DP, digits[3], digits[2], digits[1], digits[0]));
 1412              		.loc 1 347 0
 1413 0806 03AB     		add	r3, sp, #12	@ tmp814,,
 1414 0808 D978     		ldrb	r1, [r3, #3]	@ D.4611,
 1415 080a 03AB     		add	r3, sp, #12	@ tmp815,,
 1416 080c 9C78     		ldrb	r4, [r3, #2]	@ D.4611,
 1417 080e 03AB     		add	r3, sp, #12	@ tmp816,,
 1418 0810 5D78     		ldrb	r5, [r3, #1]	@ D.4611,
 1419 0812 03AB     		add	r3, sp, #12	@ tmp817,,
 1420 0814 1B78     		ldrb	r3, [r3]	@ D.4611, digits
ARM GAS  /tmp/ccun4gHj.s 			page 32


 1421 0816 2322     		movs	r2, #35	@ tmp818,
 1422 0818 6A44     		add	r2, r2, sp	@ tmp818,
 1423 081a 1078     		ldrb	r0, [r2]	@ tmp819, DP
 1424 081c 0093     		str	r3, [sp]	@ D.4611,
 1425 081e 2B00     		movs	r3, r5	@, D.4611
 1426 0820 2200     		movs	r2, r4	@, D.4611
 1427 0822 FFF7FEFF 		bl	connect_digits	@
 1428 0826 0300     		movs	r3, r0	@ D.4612,
 1429 0828 1800     		movs	r0, r3	@, D.4612
 1430 082a FFF7FEFF 		bl	write_led	@
 348:code/main.c   ****         break;
 1431              		.loc 1 348 0
 1432 082e 24E0     		b	.L50	@
 1433              	.L37:
 349:code/main.c   ****       default:  
 350:code/main.c   **** 
 351:code/main.c   ****             digits[0] = 0x08;
 1434              		.loc 1 351 0
 1435 0830 03AB     		add	r3, sp, #12	@ tmp820,,
 1436 0832 0822     		movs	r2, #8	@ tmp821,
 1437 0834 1A70     		strb	r2, [r3]	@ tmp822, digits
 352:code/main.c   ****             digits[1] = 0x08;
 1438              		.loc 1 352 0
 1439 0836 03AB     		add	r3, sp, #12	@ tmp823,,
 1440 0838 0822     		movs	r2, #8	@ tmp824,
 1441 083a 5A70     		strb	r2, [r3, #1]	@ tmp825, digits
 353:code/main.c   ****             digits[2] = 0x08;
 1442              		.loc 1 353 0
 1443 083c 03AB     		add	r3, sp, #12	@ tmp826,,
 1444 083e 0822     		movs	r2, #8	@ tmp827,
 1445 0840 9A70     		strb	r2, [r3, #2]	@ tmp828, digits
 354:code/main.c   ****             digits[3] = 0x00;
 1446              		.loc 1 354 0
 1447 0842 03AB     		add	r3, sp, #12	@ tmp829,,
 1448 0844 0022     		movs	r2, #0	@ tmp830,
 1449 0846 DA70     		strb	r2, [r3, #3]	@ tmp831, digits
 355:code/main.c   ****             DP = 0x07;
 1450              		.loc 1 355 0
 1451 0848 2323     		movs	r3, #35	@ tmp832,
 1452 084a 6B44     		add	r3, r3, sp	@ tmp832,
 1453 084c 0722     		movs	r2, #7	@ tmp833,
 1454 084e 1A70     		strb	r2, [r3]	@ tmp834, DP
 356:code/main.c   **** 
 357:code/main.c   ****             write_led(connect_digits(DP, digits[3], digits[2], digits[1], digits[0]));
 1455              		.loc 1 357 0
 1456 0850 03AB     		add	r3, sp, #12	@ tmp835,,
 1457 0852 D978     		ldrb	r1, [r3, #3]	@ D.4611,
 1458 0854 03AB     		add	r3, sp, #12	@ tmp836,,
 1459 0856 9C78     		ldrb	r4, [r3, #2]	@ D.4611,
 1460 0858 03AB     		add	r3, sp, #12	@ tmp837,,
 1461 085a 5D78     		ldrb	r5, [r3, #1]	@ D.4611,
 1462 085c 03AB     		add	r3, sp, #12	@ tmp838,,
 1463 085e 1B78     		ldrb	r3, [r3]	@ D.4611, digits
 1464 0860 2322     		movs	r2, #35	@ tmp839,
 1465 0862 6A44     		add	r2, r2, sp	@ tmp839,
 1466 0864 1078     		ldrb	r0, [r2]	@ tmp840, DP
 1467 0866 0093     		str	r3, [sp]	@ D.4611,
ARM GAS  /tmp/ccun4gHj.s 			page 33


 1468 0868 2B00     		movs	r3, r5	@, D.4611
 1469 086a 2200     		movs	r2, r4	@, D.4611
 1470 086c FFF7FEFF 		bl	connect_digits	@
 1471 0870 0300     		movs	r3, r0	@ D.4612,
 1472 0872 1800     		movs	r0, r3	@, D.4612
 1473 0874 FFF7FEFF 		bl	write_led	@
 358:code/main.c   ****         break;
 1474              		.loc 1 358 0
 1475 0878 C046     		nop
 1476              	.L50:
 359:code/main.c   ****     }
 360:code/main.c   **** 
 361:code/main.c   **** 
 362:code/main.c   **** // accumulate the fork_counter and timer, calculate average speed
 363:code/main.c   ****     if (read_nFork() == 0) {
 1477              		.loc 1 363 0
 1478 087a FFF7FEFF 		bl	read_nFork	@
 1479 087e 031E     		subs	r3, r0, #0	@ D.4612,,
 1480 0880 32D1     		bne	.L68	@,
 364:code/main.c   **** 
 365:code/main.c   ****       if(read_fork_cnt() != 0){
 1481              		.loc 1 365 0
 1482 0882 FFF7FEFF 		bl	read_fork_cnt	@
 1483 0886 031E     		subs	r3, r0, #0	@ D.4612,,
 1484 0888 10D0     		beq	.L69	@,
 366:code/main.c   ****         fork_time = read_fork_cnt();
 1485              		.loc 1 366 0
 1486 088a FFF7FEFF 		bl	read_fork_cnt	@
 1487 088e 0300     		movs	r3, r0	@ tmp841,
 1488 0890 0B93     		str	r3, [sp, #44]	@ tmp841, fork_time
 367:code/main.c   ****         //speedometer = wheel_size/(fork_time*30.52/1000)*360; 
 368:code/main.c   ****         speedometer = (wheel_size*11796/fork_time);  // unit: 100m/h
 1489              		.loc 1 368 0
 1490 0892 059B     		ldr	r3, [sp, #20]	@ tmp842, wheel_size
 1491 0894 414A     		ldr	r2, .L80	@ tmp843,
 1492 0896 5343     		muls	r3, r2	@ D.4612, tmp843
 1493 0898 0B99     		ldr	r1, [sp, #44]	@, fork_time
 1494 089a 1800     		movs	r0, r3	@, D.4612
 1495 089c FFF7FEFF 		bl	__aeabi_uidiv	@
 1496 08a0 0300     		movs	r3, r0	@ tmp847,
 1497 08a2 0C93     		str	r3, [sp, #48]	@ tmp847, speedometer
 369:code/main.c   ****         //av_ssni_419 = (av_ssni_419*(fork_counter)+speedometer)/(fork_counter+1);
 370:code/main.c   ****         //av_ssni_419 = (0.36*((fork_counter) * wheel_size))/(time);
 371:code/main.c   ****         fork_counter = fork_counter + 1;
 1498              		.loc 1 371 0
 1499 08a4 129B     		ldr	r3, [sp, #72]	@ tmp849, fork_counter
 1500 08a6 0133     		adds	r3, r3, #1	@ tmp848,
 1501 08a8 1293     		str	r3, [sp, #72]	@ tmp848, fork_counter
 1502 08aa 01E0     		b	.L70	@
 1503              	.L69:
 372:code/main.c   ****       }
 373:code/main.c   ****       else {
 374:code/main.c   ****         speedometer = 0;
 1504              		.loc 1 374 0
 1505 08ac 0023     		movs	r3, #0	@ tmp850,
 1506 08ae 0C93     		str	r3, [sp, #48]	@ tmp850, speedometer
 1507              	.L70:
ARM GAS  /tmp/ccun4gHj.s 			page 34


 375:code/main.c   ****       }
 376:code/main.c   **** 
 377:code/main.c   ****       accumulate_time += fork_time;
 1508              		.loc 1 377 0
 1509 08b0 0F9A     		ldr	r2, [sp, #60]	@ tmp852, accumulate_time
 1510 08b2 0B9B     		ldr	r3, [sp, #44]	@ tmp853, fork_time
 1511 08b4 D318     		adds	r3, r2, r3	@ tmp851, tmp852, tmp853
 1512 08b6 0F93     		str	r3, [sp, #60]	@ tmp851, accumulate_time
 378:code/main.c   **** 
 379:code/main.c   ****       if (DiscreteDisplay < 0x8000) {
 1513              		.loc 1 379 0
 1514 08b8 08AB     		add	r3, sp, #32	@ tmp854,,
 1515 08ba 0022     		movs	r2, #0	@ tmp923,
 1516 08bc 9B5E     		ldrsh	r3, [r3, r2]	@ D.4614, tmp854, tmp923
 1517 08be 002B     		cmp	r3, #0	@ D.4614,
 1518 08c0 0BDB     		blt	.L71	@,
 380:code/main.c   ****         DiscreteDisplay += fork_time;
 1519              		.loc 1 380 0
 1520 08c2 0B9B     		ldr	r3, [sp, #44]	@ tmp856, fork_time
 1521 08c4 99B2     		uxth	r1, r3	@ D.4615, tmp855
 1522 08c6 08AB     		add	r3, sp, #32	@ tmp857,,
 1523 08c8 08AA     		add	r2, sp, #32	@ tmp858,,
 1524 08ca 1288     		ldrh	r2, [r2]	@ tmp859, DiscreteDisplay
 1525 08cc 8A18     		adds	r2, r1, r2	@ tmp860, D.4615, tmp859
 1526 08ce 1A80     		strh	r2, [r3]	@ tmp861, DiscreteDisplay
 381:code/main.c   ****         display = false;
 1527              		.loc 1 381 0
 1528 08d0 1F23     		movs	r3, #31	@ tmp862,
 1529 08d2 6B44     		add	r3, r3, sp	@ tmp862,
 1530 08d4 0022     		movs	r2, #0	@ tmp863,
 1531 08d6 1A70     		strb	r2, [r3]	@ tmp864, display
 1532 08d8 06E0     		b	.L68	@
 1533              	.L71:
 382:code/main.c   ****       }
 383:code/main.c   ****       else {
 384:code/main.c   ****         DiscreteDisplay = 0;
 1534              		.loc 1 384 0
 1535 08da 08AB     		add	r3, sp, #32	@ tmp865,,
 1536 08dc 0022     		movs	r2, #0	@ tmp866,
 1537 08de 1A80     		strh	r2, [r3]	@ tmp867, DiscreteDisplay
 385:code/main.c   ****         display = true; 
 1538              		.loc 1 385 0
 1539 08e0 1F23     		movs	r3, #31	@ tmp868,
 1540 08e2 6B44     		add	r3, r3, sp	@ tmp868,
 1541 08e4 0122     		movs	r2, #1	@ tmp869,
 1542 08e6 1A70     		strb	r2, [r3]	@ tmp870, display
 1543              	.L68:
 386:code/main.c   ****       }
 387:code/main.c   ****     }
 388:code/main.c   ****   
 389:code/main.c   ****     if(read_fork_cnt() == 0){speedometer = 0;}
 1544              		.loc 1 389 0
 1545 08e8 FFF7FEFF 		bl	read_fork_cnt	@
 1546 08ec 031E     		subs	r3, r0, #0	@ D.4612,,
 1547 08ee 01D1     		bne	.L72	@,
 1548              		.loc 1 389 0 is_stmt 0 discriminator 1
 1549 08f0 0023     		movs	r3, #0	@ tmp871,
ARM GAS  /tmp/ccun4gHj.s 			page 35


 1550 08f2 0C93     		str	r3, [sp, #48]	@ tmp871, speedometer
 1551              	.L72:
 390:code/main.c   **** 
 391:code/main.c   **** // calculate the distance
 392:code/main.c   ****     odometer = fork_counter * wheel_size / 10000;
 1552              		.loc 1 392 0 is_stmt 1
 1553 08f4 129B     		ldr	r3, [sp, #72]	@ tmp872, fork_counter
 1554 08f6 059A     		ldr	r2, [sp, #20]	@ tmp873, wheel_size
 1555 08f8 5343     		muls	r3, r2	@ D.4612, tmp873
 1556 08fa 2949     		ldr	r1, .L80+4	@,
 1557 08fc 1800     		movs	r0, r3	@, D.4612
 1558 08fe FFF7FEFF 		bl	__aeabi_uidiv	@
 1559 0902 0300     		movs	r3, r0	@ tmp876,
 1560 0904 1193     		str	r3, [sp, #68]	@ tmp876, odometer
 393:code/main.c   **** 
 394:code/main.c   **** // calculate the timer
 395:code/main.c   ****     //time = read_timer()/0x00008000;
 396:code/main.c   ****     time = accumulate_time/0x00008000;
 1561              		.loc 1 396 0
 1562 0906 0F9B     		ldr	r3, [sp, #60]	@ tmp878, accumulate_time
 1563 0908 DB0B     		lsrs	r3, r3, #15	@ tmp877, tmp878,
 1564 090a 1093     		str	r3, [sp, #64]	@ tmp877, time
 397:code/main.c   **** 
 398:code/main.c   **** // compute the wheel speed
 399:code/main.c   ****     if (speedometer > 0x000003E7){
 1565              		.loc 1 399 0
 1566 090c 0C9B     		ldr	r3, [sp, #48]	@ tmp879, speedometer
 1567 090e 254A     		ldr	r2, .L80+8	@ tmp880,
 1568 0910 9342     		cmp	r3, r2	@ tmp879, tmp880
 1569 0912 01D9     		bls	.L73	@,
 400:code/main.c   ****       speedometer = 0x000003E7;
 1570              		.loc 1 400 0
 1571 0914 234B     		ldr	r3, .L80+8	@ tmp881,
 1572 0916 0C93     		str	r3, [sp, #48]	@ tmp881, speedometer
 1573              	.L73:
 401:code/main.c   ****     }
 402:code/main.c   **** 
 403:code/main.c   ****   // compute the average wheel speed
 404:code/main.c   ****      av_ssni_419 = ((fork_counter) * wheel_size*11796)/(accumulate_time);
 1574              		.loc 1 404 0
 1575 0918 129B     		ldr	r3, [sp, #72]	@ tmp882, fork_counter
 1576 091a 059A     		ldr	r2, [sp, #20]	@ tmp883, wheel_size
 1577 091c 5343     		muls	r3, r2	@ D.4612, tmp883
 1578 091e 1F4A     		ldr	r2, .L80	@ tmp884,
 1579 0920 5343     		muls	r3, r2	@ D.4612, tmp884
 1580 0922 0F99     		ldr	r1, [sp, #60]	@, accumulate_time
 1581 0924 1800     		movs	r0, r3	@, D.4612
 1582 0926 FFF7FEFF 		bl	__aeabi_uidiv	@
 1583 092a 0300     		movs	r3, r0	@ tmp888,
 1584 092c 0E93     		str	r3, [sp, #56]	@ tmp888, av_ssni_419
 405:code/main.c   **** 
 406:code/main.c   **** 
 407:code/main.c   **** // computer the pedal speed
 408:code/main.c   ****     //cadence_meter = 60/(read_pedal_cnt()*30.52/1000000);
 409:code/main.c   ****     cadence_meter = 1965924/read_pedal_cnt();
 1585              		.loc 1 409 0
 1586 092e FFF7FEFF 		bl	read_pedal_cnt	@
ARM GAS  /tmp/ccun4gHj.s 			page 36


 1587 0932 0300     		movs	r3, r0	@ D.4612,
 1588 0934 1900     		movs	r1, r3	@, D.4612
 1589 0936 1C48     		ldr	r0, .L80+12	@,
 1590 0938 FFF7FEFF 		bl	__aeabi_uidiv	@
 1591 093c 0300     		movs	r3, r0	@ tmp891,
 1592 093e 0A93     		str	r3, [sp, #40]	@ tmp891, cadence_meter
 410:code/main.c   ****     if ((cadence_meter%5) != 0){
 1593              		.loc 1 410 0
 1594 0940 0A9B     		ldr	r3, [sp, #40]	@ tmp892, cadence_meter
 1595 0942 0521     		movs	r1, #5	@,
 1596 0944 1800     		movs	r0, r3	@, tmp892
 1597 0946 FFF7FEFF 		bl	__aeabi_uidivmod	@
 1598 094a 0B1E     		subs	r3, r1, #0	@ tmp897,,
 1599 094c 0AD0     		beq	.L74	@,
 411:code/main.c   ****       cadence_meter = (cadence_meter/5+1)*5;
 1600              		.loc 1 411 0
 1601 094e 0A9B     		ldr	r3, [sp, #40]	@ tmp898, cadence_meter
 1602 0950 0521     		movs	r1, #5	@,
 1603 0952 1800     		movs	r0, r3	@, tmp898
 1604 0954 FFF7FEFF 		bl	__aeabi_uidiv	@
 1605 0958 0300     		movs	r3, r0	@ tmp901,
 1606 095a 5A1C     		adds	r2, r3, #1	@ D.4612, D.4612,
 1607 095c 1300     		movs	r3, r2	@ tmp902, D.4612
 1608 095e 9B00     		lsls	r3, r3, #2	@ tmp902, tmp902,
 1609 0960 9B18     		adds	r3, r3, r2	@ tmp903, tmp902, D.4612
 1610 0962 0A93     		str	r3, [sp, #40]	@ tmp903, cadence_meter
 1611              	.L74:
 412:code/main.c   ****     }               
 413:code/main.c   **** 
 414:code/main.c   ****     if (cadence_meter >= 0x000003E3){
 1612              		.loc 1 414 0
 1613 0964 0A9B     		ldr	r3, [sp, #40]	@ tmp904, cadence_meter
 1614 0966 114A     		ldr	r2, .L80+16	@ tmp905,
 1615 0968 9342     		cmp	r3, r2	@ tmp904, tmp905
 1616 096a 01D9     		bls	.L75	@,
 415:code/main.c   ****       cadence_meter = 0x000003E3;
 1617              		.loc 1 415 0
 1618 096c 104B     		ldr	r3, .L80+20	@ tmp906,
 1619 096e 0A93     		str	r3, [sp, #40]	@ tmp906, cadence_meter
 1620              	.L75:
 416:code/main.c   ****     }
 417:code/main.c   **** 
 418:code/main.c   **** // save the maximum speed 
 419:code/main.c   ****     if (speedometer >= max_speed){
 1621              		.loc 1 419 0
 1622 0970 0C9A     		ldr	r2, [sp, #48]	@ tmp907, speedometer
 1623 0972 0D9B     		ldr	r3, [sp, #52]	@ tmp908, max_speed
 1624 0974 9A42     		cmp	r2, r3	@ tmp907, tmp908
 1625 0976 01D3     		bcc	.L76	@,
 420:code/main.c   ****       max_speed = speedometer;
 1626              		.loc 1 420 0
 1627 0978 0C9B     		ldr	r3, [sp, #48]	@ tmp909, speedometer
 1628 097a 0D93     		str	r3, [sp, #52]	@ tmp909, max_speed
 1629              	.L76:
 421:code/main.c   ****     }
 422:code/main.c   **** 
 423:code/main.c   **** // compute the clorie 
ARM GAS  /tmp/ccun4gHj.s 			page 37


 424:code/main.c   ****     calorie = weight * fork_counter * wheel_size*3/500000;
 1630              		.loc 1 424 0
 1631 097c 069B     		ldr	r3, [sp, #24]	@ tmp910, weight
 1632 097e 129A     		ldr	r2, [sp, #72]	@ tmp911, fork_counter
 1633 0980 5343     		muls	r3, r2	@ D.4612, tmp911
 1634 0982 059A     		ldr	r2, [sp, #20]	@ tmp912, wheel_size
 1635 0984 5A43     		muls	r2, r3	@ D.4612, D.4612
 1636 0986 1300     		movs	r3, r2	@ tmp913, D.4612
 1637 0988 5B00     		lsls	r3, r3, #1	@ tmp913, tmp913,
 1638 098a 9B18     		adds	r3, r3, r2	@ D.4612, tmp913, D.4612
 1639 098c 0949     		ldr	r1, .L80+24	@,
 1640 098e 1800     		movs	r0, r3	@, D.4612
 1641 0990 FFF7FEFF 		bl	__aeabi_uidiv	@
 1642 0994 0300     		movs	r3, r0	@ tmp916,
 1643 0996 0993     		str	r3, [sp, #36]	@ tmp916, calorie
 425:code/main.c   ****   }
 1644              		.loc 1 425 0
 1645 0998 FFF701FC 		bl	.L77	@ far jump	@
 1646              	.L81:
 1647              		.align	2
 1648              	.L80:
 1649 099c 142E0000 		.word	11796
 1650 09a0 10270000 		.word	10000
 1651 09a4 E7030000 		.word	999
 1652 09a8 64FF1D00 		.word	1965924
 1653 09ac E2030000 		.word	994
 1654 09b0 E3030000 		.word	995
 1655 09b4 20A10700 		.word	500000
 1656              		.cfi_endproc
 1657              	.LFE9:
 1658              		.size	main, .-main
 1659              	.Letext0:
 1660              		.file 2 "/srv/gcc-arm-none-eabi-5_4-2016q3/arm-none-eabi/include/machine/_default_types.h"
 1661              		.file 3 "/srv/gcc-arm-none-eabi-5_4-2016q3/arm-none-eabi/include/sys/_stdint.h"